; Listing generated by Microsoft (R) Optimizing Compiler Version 19.00.24215.1 

include listing.inc

INCLUDELIB OLDNAMES

PUBLIC	??_C@_0BC@EOODALEL@Unknown?5exception?$AA@	; `string'
PUBLIC	??_C@_08EPJLHIJG@bad?5cast?$AA@			; `string'
PUBLIC	??_C@_09BKNEKCHJ@?5Street?3?5?$AA@		; `string'
PUBLIC	??_C@_08BJFIKPMA@?5Phone?3?5?$AA@		; `string'
PUBLIC	??_C@_07GFBFGADC@?5Name?3?5?$AA@		; `string'
PUBLIC	??_C@_04GEACBGGK@Id?3?5?$AA@			; `string'
PUBLIC	??_C@_08DBLECGNM@Sizeof?$DN?5?$AA@		; `string'
PUBLIC	??_C@_06FJPICAAH@Size?$DN?5?$AA@		; `string'
PUBLIC	??_C@_06NCOGOMNI@B?5ctor?$AA@			; `string'
PUBLIC	??_C@_05HKGIJGOH@name?3?$AA@			; `string'
PUBLIC	??_C@_0BI@OLJNFCOG@Enter?5a?5name?5to?5search?3?$AA@ ; `string'
PUBLIC	??_C@_0M@PKKJBGBP@?5was?5found?4?$AA@		; `string'
PUBLIC	??_C@_06GECNACHD@Name?3?5?$AA@			; `string'
PUBLIC	??_C@_0BA@FOFKOMMP@?5was?5not?5found?4?$AA@	; `string'
PUBLIC	??_C@_02EGOFBIJA@?$DN?$DN?$AA@			; `string'
PUBLIC	??_C@_02MDDDDAID@0x?$AA@			; `string'
PUBLIC	??_C@_0M@EDPAHMEG@Pappelallee?$AA@		; `string'
PUBLIC	??_C@_04BMONCBKL@D4?01?$AA@			; `string'
PUBLIC	??_C@_07POJDIGN@4318086?$AA@			; `string'
PUBLIC	??_C@_05KECJILOC@Peter?$AA@			; `string'
PUBLIC	??_C@_07KJJODDNJ@4218086?$AA@			; `string'
PUBLIC	??_C@_04FOHCOOKI@Jani?$AA@			; `string'
PUBLIC	??_C@_0BC@KPJBILHM@Hessische?5STrasse?$AA@	; `string'
PUBLIC	??_C@_0BF@PMMONCA@sizeof?$CIfixedarray?$CJ?$DN?5?$AA@ ; `string'
PUBLIC	??_C@_0BA@OHOGMNKK@sizeof?$CIbools?$CJ?$DN?5?$AA@ ; `string'
PUBLIC	??_C@_01CLKCMJKC@?5?$AA@			; `string'
PUBLIC	??_C@_04HGHEBDJD@Jona?$AA@			; `string'
PUBLIC	??_C@_09CLDCNNLM@Steinhaus?$AA@			; `string'
PUBLIC	??_C@_0CA@EHIGNEEA@Please?0?5enter?5a?5binary?5number?3?5?$AA@ ; `string'
PUBLIC	??_C@_0M@JHJOMOE@?5bits?5set?4?6?$AA@		; `string'
PUBLIC	??_C@_05KAHKAFCL@?5has?5?$AA@			; `string'
PUBLIC	??_C@_0BD@JKFHIDFG@?5has?5no?5bits?5set?4?6?$AA@ ; `string'
PUBLIC	??_C@_01IHBHIGKO@?0?$AA@			; `string'
PUBLIC	??_C@_01NEMOKFLO@?$DN?$AA@			; `string'
PUBLIC	??_C@_01KMDKNFGN@?1?$AA@			; `string'
PUBLIC	??_C@_05JFEKDPJM@npos?3?$AA@			; `string'
PUBLIC	??_C@_09ODOBMKFB@UINT_MAX?3?$AA@		; `string'
PUBLIC	??_C@_0BA@EPPCIFJO@_MSC_VER?5?3?5?$CFd?5?6?$AA@	; `string'
PUBLIC	??_C@_0BF@BEJHHADK@_MSC_FULL_VER?5?3?5?$CFd?5?6?$AA@ ; `string'
PUBLIC	??_C@_0BC@KADPAEDI@_MSC_BUILD?5?3?5?$CFd?5?6?$AA@ ; `string'
PUBLIC	??_C@_0BF@KIDMNPKL@_MSVC_LANG?5?3?5C?$CL?$CL?$CFx?5?6?$AA@ ; `string'
PUBLIC	??_C@_0BF@LCPDDHIM@_MSVC_LANG?5?3?5C?$CL?$CL?$CFd?5?6?$AA@ ; `string'
PUBLIC	??_C@_0BAB@LMILMGBN@?$AA?$AB?$AB?$AC?$AB?$AC?$AC?$AD?$AB?$AC?$AC?$AD?$AC?$AD?$AD?$AE?$AB?$AC?$AC?$AD?$AC?$AD?$AD?$AE?$AC?$AD?$AD?$AE?$AD?$AE?$AE?$AF@ ; `string'
PUBLIC	??_C@_0BD@OLBABOEK@vector?$DMT?$DO?5too?5long?$AA@ ; `string'
PUBLIC	??_C@_0BA@JFNIOLAK@string?5too?5long?$AA@	; `string'
PUBLIC	??_C@_0BI@CFPLBAOH@invalid?5string?5position?$AA@ ; `string'
PUBLIC	??_C@_0BL@HMFHJKFH@invalid?5bitset?$DMN?$DO?5position?$AA@ ; `string'
PUBLIC	??_C@_0BH@MPGAMBMA@invalid?5bitset?$DMN?$DO?5char?$AA@ ; `string'
PUBLIC	??_R2B@@8					; B::`RTTI Base Class Array'
PUBLIC	??_R2A@@8					; A::`RTTI Base Class Array'
PUBLIC	??_R2bad_cast@std@@8				; std::bad_cast::`RTTI Base Class Array'
PUBLIC	??_R2exception@std@@8				; std::exception::`RTTI Base Class Array'
PUBLIC	??_R1A@?0A@EA@B@@8				; B::`RTTI Base Class Descriptor at (0,-1,0,64)'
PUBLIC	??_R1A@?0A@EA@A@@8				; A::`RTTI Base Class Descriptor at (0,-1,0,64)'
PUBLIC	??_R1A@?0A@EA@bad_cast@std@@8			; std::bad_cast::`RTTI Base Class Descriptor at (0,-1,0,64)'
PUBLIC	??_R1A@?0A@EA@exception@std@@8			; std::exception::`RTTI Base Class Descriptor at (0,-1,0,64)'
PUBLIC	??_R3B@@8					; B::`RTTI Class Hierarchy Descriptor'
PUBLIC	??_R0?AVB@@@8					; B `RTTI Type Descriptor'
PUBLIC	??_R3A@@8					; A::`RTTI Class Hierarchy Descriptor'
PUBLIC	??_R0?AVA@@@8					; A `RTTI Type Descriptor'
PUBLIC	??_R3bad_cast@std@@8				; std::bad_cast::`RTTI Class Hierarchy Descriptor'
PUBLIC	??_R3exception@std@@8				; std::exception::`RTTI Class Hierarchy Descriptor'
PUBLIC	??_R4B@@6B@					; B::`RTTI Complete Object Locator'
PUBLIC	??_R4A@@6B@					; A::`RTTI Complete Object Locator'
PUBLIC	??_R4bad_cast@std@@6B@				; std::bad_cast::`RTTI Complete Object Locator'
PUBLIC	??_R4exception@std@@6B@				; std::exception::`RTTI Complete Object Locator'
PUBLIC	_CTA2?AVbad_cast@std@@
PUBLIC	_CT??_R0?AVbad_cast@std@@@8??0bad_cast@std@@QEAA@AEBV01@@Z24
PUBLIC	??_R0?AVbad_cast@std@@@8			; std::bad_cast `RTTI Type Descriptor'
PUBLIC	_TI2?AVbad_cast@std@@
PUBLIC	?_Psave@?$_Facetptr@V?$ctype@D@std@@@std@@2PEBVfacet@locale@2@EB ; std::_Facetptr<std::ctype<char> >::_Psave
PUBLIC	?_OptionsStorage@?1??__local_stdio_printf_options@@9@4_KA ; `__local_stdio_printf_options'::`2'::_OptionsStorage
PUBLIC	?npos@?$basic_string@DU?$char_traits@D@std@@V?$allocator@D@2@@std@@2_KB ; std::basic_string<char,std::char_traits<char>,std::allocator<char> >::npos
PUBLIC	??_7B@@6B@					; B::`vftable'
PUBLIC	??_7A@@6B@					; A::`vftable'
PUBLIC	_CT??_R0?AVexception@std@@@8??0exception@std@@QEAA@AEBV01@@Z24
PUBLIC	??_R0?AVexception@std@@@8			; std::exception `RTTI Type Descriptor'
PUBLIC	??_7bad_cast@std@@6B@				; std::bad_cast::`vftable'
PUBLIC	??_7exception@std@@6B@				; std::exception::`vftable'
EXTRN	__imp_??Bid@locale@std@@QEAA_KXZ:PROC
EXTRN	__imp_?is@?$ctype@D@std@@QEBA_NFD@Z:PROC
EXTRN	__imp_?widen@?$ctype@D@std@@QEBADD@Z:PROC
EXTRN	__imp_?_Getcat@?$ctype@D@std@@SA_KPEAPEBVfacet@locale@2@PEBV42@@Z:PROC
EXTRN	__imp_??Bios_base@std@@QEBA_NXZ:PROC
EXTRN	__imp_?rdstate@ios_base@std@@QEBAHXZ:PROC
EXTRN	__imp_?good@ios_base@std@@QEBA_NXZ:PROC
EXTRN	__imp_?fail@ios_base@std@@QEBA_NXZ:PROC
EXTRN	__imp_?flags@ios_base@std@@QEBAHXZ:PROC
EXTRN	__imp_?setf@ios_base@std@@QEAAHHH@Z:PROC
EXTRN	__imp_?width@ios_base@std@@QEBA_JXZ:PROC
EXTRN	__imp_?width@ios_base@std@@QEAA_J_J@Z:PROC
EXTRN	__imp_?getloc@ios_base@std@@QEBA?AVlocale@2@XZ:PROC
EXTRN	__imp_??6?$basic_ostream@DU?$char_traits@D@std@@@std@@QEAAAEAV01@_K@Z:PROC
EXTRN	__imp_??6?$basic_ostream@DU?$char_traits@D@std@@@std@@QEAAAEAV01@J@Z:PROC
EXTRN	__imp_??6?$basic_ostream@DU?$char_traits@D@std@@@std@@QEAAAEAV01@H@Z:PROC
EXTRN	__imp_??6?$basic_ostream@DU?$char_traits@D@std@@@std@@QEAAAEAV01@P6AAEAVios_base@1@AEAV21@@Z@Z:PROC
EXTRN	__imp_??6?$basic_ostream@DU?$char_traits@D@std@@@std@@QEAAAEAV01@P6AAEAV01@AEAV01@@Z@Z:PROC
EXTRN	__imp_?ignore@?$basic_istream@DU?$char_traits@D@std@@@std@@QEAAAEAV12@_JH@Z:PROC
EXTRN	__imp_??5?$basic_istream@DU?$char_traits@D@std@@@std@@QEAAAEAV01@AEAH@Z:PROC
EXTRN	__imp_?clear@?$basic_ios@DU?$char_traits@D@std@@@std@@QEAAXH_N@Z:PROC
EXTRN	__imp_?sbumpc@?$basic_streambuf@DU?$char_traits@D@std@@@std@@QEAAHXZ:PROC
EXTRN	__imp_?fill@?$basic_ios@DU?$char_traits@D@std@@@std@@QEBADXZ:PROC
EXTRN	__imp_?rdbuf@?$basic_ios@DU?$char_traits@D@std@@@std@@QEBAPEAV?$basic_streambuf@DU?$char_traits@D@std@@@2@XZ:PROC
EXTRN	__imp_?setstate@?$basic_ios@DU?$char_traits@D@std@@@std@@QEAAXH_N@Z:PROC
EXTRN	__imp_?flush@?$basic_ostream@DU?$char_traits@D@std@@@std@@QEAAAEAV12@XZ:PROC
EXTRN	__imp_?_Osfx@?$basic_ostream@DU?$char_traits@D@std@@@std@@QEAAXXZ:PROC
EXTRN	__imp_?_Ipfx@?$basic_istream@DU?$char_traits@D@std@@@std@@QEAA_N_N@Z:PROC
EXTRN	__imp_?tie@?$basic_ios@DU?$char_traits@D@std@@@std@@QEBAPEAV?$basic_ostream@DU?$char_traits@D@std@@@2@XZ:PROC
EXTRN	__imp_?sputc@?$basic_streambuf@DU?$char_traits@D@std@@@std@@QEAAHD@Z:PROC
EXTRN	__imp_?snextc@?$basic_streambuf@DU?$char_traits@D@std@@@std@@QEAAHXZ:PROC
EXTRN	__imp_?sgetc@?$basic_streambuf@DU?$char_traits@D@std@@@std@@QEAAHXZ:PROC
EXTRN	__imp_?put@?$basic_ostream@DU?$char_traits@D@std@@@std@@QEAAAEAV12@D@Z:PROC
EXTRN	__imp_?sputn@?$basic_streambuf@DU?$char_traits@D@std@@@std@@QEAA_JPEBD_J@Z:PROC
EXTRN	__imp_?widen@?$basic_ios@DU?$char_traits@D@std@@@std@@QEBADD@Z:PROC
EXTRN	?_Facet_Register@std@@YAXPEAV_Facet_base@1@@Z:PROC ; std::_Facet_Register
EXTRN	__imp_?id@?$ctype@D@std@@2V0locale@2@A:QWORD
EXTRN	__imp_?_Xlength_error@std@@YAXPEBD@Z:PROC
EXTRN	__imp_?uncaught_exception@std@@YA_NXZ:PROC
EXTRN	__imp___stdio_common_vfprintf:PROC
EXTRN	__imp___acrt_iob_func:PROC
EXTRN	??_M@YAXPEAX_K1P6AX0@Z@Z:PROC			; `eh vector destructor iterator'
EXTRN	__imp_?cin@std@@3V?$basic_istream@DU?$char_traits@D@std@@@1@A:BYTE
EXTRN	__imp_?cout@std@@3V?$basic_ostream@DU?$char_traits@D@std@@@1@A:BYTE
EXTRN	__imp_?_Xout_of_range@std@@YAXPEBD@Z:PROC
EXTRN	__imp_?_Xinvalid_argument@std@@YAXPEBD@Z:PROC
EXTRN	__imp_?_Getgloballocale@locale@std@@CAPEAV_Locimp@12@XZ:PROC
EXTRN	??_7type_info@@6B@:BYTE				; type_info::`vftable'
EXTRN	__imp_??1_Lockit@std@@QEAA@XZ:PROC
EXTRN	__imp_??0_Lockit@std@@QEAA@H@Z:PROC
EXTRN	??3@YAXPEAX@Z:PROC				; operator delete
EXTRN	__imp__invalid_parameter_noinfo_noreturn:PROC
EXTRN	??2@YAPEAX_K@Z:PROC				; operator new
EXTRN	__imp_?_Xbad_alloc@std@@YAXXZ:PROC
EXTRN	__imp_memmove:PROC
EXTRN	__imp_terminate:PROC
EXTRN	??3@YAXPEAX_K@Z:PROC				; operator delete
EXTRN	__imp___std_exception_destroy:PROC
EXTRN	__imp___std_exception_copy:PROC
EXTRN	__imp___std_terminate:PROC
EXTRN	__security_check_cookie:PROC
;	COMDAT ?_Psave@?$_Facetptr@V?$ctype@D@std@@@std@@2PEBVfacet@locale@2@EB
_BSS	SEGMENT
?_Psave@?$_Facetptr@V?$ctype@D@std@@@std@@2PEBVfacet@locale@2@EB DQ 01H DUP (?) ; std::_Facetptr<std::ctype<char> >::_Psave
_BSS	ENDS
;	COMDAT ?_OptionsStorage@?1??__local_stdio_printf_options@@9@4_KA
_BSS	SEGMENT
?_OptionsStorage@?1??__local_stdio_printf_options@@9@4_KA DQ 01H DUP (?) ; `__local_stdio_printf_options'::`2'::_OptionsStorage
_BSS	ENDS
;	COMDAT ??_7exception@std@@6B@
CONST	SEGMENT
??_7exception@std@@6B@ DQ FLAT:??_R4exception@std@@6B@	; std::exception::`vftable'
	DQ	FLAT:??_Eexception@std@@UEAAPEAXI@Z
	DQ	FLAT:?what@exception@std@@UEBAPEBDXZ
CONST	ENDS
;	COMDAT ??_7bad_cast@std@@6B@
CONST	SEGMENT
??_7bad_cast@std@@6B@ DQ FLAT:??_R4bad_cast@std@@6B@	; std::bad_cast::`vftable'
	DQ	FLAT:??_Ebad_cast@std@@UEAAPEAXI@Z
	DQ	FLAT:?what@exception@std@@UEBAPEBDXZ
CONST	ENDS
;	COMDAT ??_R0?AVexception@std@@@8
data$r	SEGMENT
??_R0?AVexception@std@@@8 DQ FLAT:??_7type_info@@6B@	; std::exception `RTTI Type Descriptor'
	DQ	0000000000000000H
	DB	'.?AVexception@std@@', 00H
data$r	ENDS
;	COMDAT _CT??_R0?AVexception@std@@@8??0exception@std@@QEAA@AEBV01@@Z24
xdata$x	SEGMENT
_CT??_R0?AVexception@std@@@8??0exception@std@@QEAA@AEBV01@@Z24 DD 00H
	DD	imagerel ??_R0?AVexception@std@@@8
	DD	00H
	DD	0ffffffffH
	ORG $+4
	DD	018H
	DD	imagerel ??0exception@std@@QEAA@AEBV01@@Z
xdata$x	ENDS
;	COMDAT ??_7A@@6B@
CONST	SEGMENT
??_7A@@6B@ DQ	FLAT:??_R4A@@6B@			; A::`vftable'
	DQ	FLAT:?GetName@A@@UEBA?AV?$basic_string@DU?$char_traits@D@std@@V?$allocator@D@2@@std@@XZ
CONST	ENDS
;	COMDAT ??_7B@@6B@
CONST	SEGMENT
??_7B@@6B@ DQ	FLAT:??_R4B@@6B@			; B::`vftable'
	DQ	FLAT:?GetName@B@@UEBA?AV?$basic_string@DU?$char_traits@D@std@@V?$allocator@D@2@@std@@XZ
CONST	ENDS
;	COMDAT ?npos@?$basic_string@DU?$char_traits@D@std@@V?$allocator@D@2@@std@@2_KB
CONST	SEGMENT
?npos@?$basic_string@DU?$char_traits@D@std@@V?$allocator@D@2@@std@@2_KB DQ ffffffffffffffffH ; std::basic_string<char,std::char_traits<char>,std::allocator<char> >::npos
CONST	ENDS
;	COMDAT _TI2?AVbad_cast@std@@
xdata$x	SEGMENT
_TI2?AVbad_cast@std@@ DD 00H
	DD	imagerel ??1bad_cast@std@@UEAA@XZ
	DD	00H
	DD	imagerel _CTA2?AVbad_cast@std@@
xdata$x	ENDS
;	COMDAT ??_R0?AVbad_cast@std@@@8
data$r	SEGMENT
??_R0?AVbad_cast@std@@@8 DQ FLAT:??_7type_info@@6B@	; std::bad_cast `RTTI Type Descriptor'
	DQ	0000000000000000H
	DB	'.?AVbad_cast@std@@', 00H
data$r	ENDS
;	COMDAT _CT??_R0?AVbad_cast@std@@@8??0bad_cast@std@@QEAA@AEBV01@@Z24
xdata$x	SEGMENT
_CT??_R0?AVbad_cast@std@@@8??0bad_cast@std@@QEAA@AEBV01@@Z24 DD 00H
	DD	imagerel ??_R0?AVbad_cast@std@@@8
	DD	00H
	DD	0ffffffffH
	ORG $+4
	DD	018H
	DD	imagerel ??0bad_cast@std@@QEAA@AEBV01@@Z
xdata$x	ENDS
;	COMDAT _CTA2?AVbad_cast@std@@
xdata$x	SEGMENT
_CTA2?AVbad_cast@std@@ DD 02H
	DD	imagerel _CT??_R0?AVbad_cast@std@@@8??0bad_cast@std@@QEAA@AEBV01@@Z24
	DD	imagerel _CT??_R0?AVexception@std@@@8??0exception@std@@QEAA@AEBV01@@Z24
xdata$x	ENDS
;	COMDAT ??_R4exception@std@@6B@
rdata$r	SEGMENT
??_R4exception@std@@6B@ DD 01H				; std::exception::`RTTI Complete Object Locator'
	DD	00H
	DD	00H
	DD	imagerel ??_R0?AVexception@std@@@8
	DD	imagerel ??_R3exception@std@@8
	DD	imagerel ??_R4exception@std@@6B@
rdata$r	ENDS
;	COMDAT ??_R4bad_cast@std@@6B@
rdata$r	SEGMENT
??_R4bad_cast@std@@6B@ DD 01H				; std::bad_cast::`RTTI Complete Object Locator'
	DD	00H
	DD	00H
	DD	imagerel ??_R0?AVbad_cast@std@@@8
	DD	imagerel ??_R3bad_cast@std@@8
	DD	imagerel ??_R4bad_cast@std@@6B@
rdata$r	ENDS
;	COMDAT ??_R4A@@6B@
rdata$r	SEGMENT
??_R4A@@6B@ DD	01H					; A::`RTTI Complete Object Locator'
	DD	00H
	DD	00H
	DD	imagerel ??_R0?AVA@@@8
	DD	imagerel ??_R3A@@8
	DD	imagerel ??_R4A@@6B@
rdata$r	ENDS
;	COMDAT ??_R4B@@6B@
rdata$r	SEGMENT
??_R4B@@6B@ DD	01H					; B::`RTTI Complete Object Locator'
	DD	00H
	DD	00H
	DD	imagerel ??_R0?AVB@@@8
	DD	imagerel ??_R3B@@8
	DD	imagerel ??_R4B@@6B@
rdata$r	ENDS
;	COMDAT ??_R3exception@std@@8
rdata$r	SEGMENT
??_R3exception@std@@8 DD 00H				; std::exception::`RTTI Class Hierarchy Descriptor'
	DD	00H
	DD	01H
	DD	imagerel ??_R2exception@std@@8
rdata$r	ENDS
;	COMDAT ??_R3bad_cast@std@@8
rdata$r	SEGMENT
??_R3bad_cast@std@@8 DD 00H				; std::bad_cast::`RTTI Class Hierarchy Descriptor'
	DD	00H
	DD	02H
	DD	imagerel ??_R2bad_cast@std@@8
rdata$r	ENDS
;	COMDAT ??_R0?AVA@@@8
data$r	SEGMENT
??_R0?AVA@@@8 DQ FLAT:??_7type_info@@6B@		; A `RTTI Type Descriptor'
	DQ	0000000000000000H
	DB	'.?AVA@@', 00H
data$r	ENDS
;	COMDAT ??_R3A@@8
rdata$r	SEGMENT
??_R3A@@8 DD	00H					; A::`RTTI Class Hierarchy Descriptor'
	DD	00H
	DD	01H
	DD	imagerel ??_R2A@@8
rdata$r	ENDS
;	COMDAT ??_R0?AVB@@@8
data$r	SEGMENT
??_R0?AVB@@@8 DQ FLAT:??_7type_info@@6B@		; B `RTTI Type Descriptor'
	DQ	0000000000000000H
	DB	'.?AVB@@', 00H
data$r	ENDS
;	COMDAT ??_R3B@@8
rdata$r	SEGMENT
??_R3B@@8 DD	00H					; B::`RTTI Class Hierarchy Descriptor'
	DD	00H
	DD	02H
	DD	imagerel ??_R2B@@8
rdata$r	ENDS
;	COMDAT ??_R1A@?0A@EA@exception@std@@8
rdata$r	SEGMENT
??_R1A@?0A@EA@exception@std@@8 DD imagerel ??_R0?AVexception@std@@@8 ; std::exception::`RTTI Base Class Descriptor at (0,-1,0,64)'
	DD	00H
	DD	00H
	DD	0ffffffffH
	DD	00H
	DD	040H
	DD	imagerel ??_R3exception@std@@8
rdata$r	ENDS
;	COMDAT ??_R1A@?0A@EA@bad_cast@std@@8
rdata$r	SEGMENT
??_R1A@?0A@EA@bad_cast@std@@8 DD imagerel ??_R0?AVbad_cast@std@@@8 ; std::bad_cast::`RTTI Base Class Descriptor at (0,-1,0,64)'
	DD	01H
	DD	00H
	DD	0ffffffffH
	DD	00H
	DD	040H
	DD	imagerel ??_R3bad_cast@std@@8
rdata$r	ENDS
;	COMDAT ??_R1A@?0A@EA@A@@8
rdata$r	SEGMENT
??_R1A@?0A@EA@A@@8 DD imagerel ??_R0?AVA@@@8		; A::`RTTI Base Class Descriptor at (0,-1,0,64)'
	DD	00H
	DD	00H
	DD	0ffffffffH
	DD	00H
	DD	040H
	DD	imagerel ??_R3A@@8
rdata$r	ENDS
;	COMDAT ??_R1A@?0A@EA@B@@8
rdata$r	SEGMENT
??_R1A@?0A@EA@B@@8 DD imagerel ??_R0?AVB@@@8		; B::`RTTI Base Class Descriptor at (0,-1,0,64)'
	DD	01H
	DD	00H
	DD	0ffffffffH
	DD	00H
	DD	040H
	DD	imagerel ??_R3B@@8
rdata$r	ENDS
;	COMDAT ??_R2exception@std@@8
rdata$r	SEGMENT
??_R2exception@std@@8 DD imagerel ??_R1A@?0A@EA@exception@std@@8 ; std::exception::`RTTI Base Class Array'
	ORG $+3
rdata$r	ENDS
;	COMDAT ??_R2bad_cast@std@@8
rdata$r	SEGMENT
??_R2bad_cast@std@@8 DD imagerel ??_R1A@?0A@EA@bad_cast@std@@8 ; std::bad_cast::`RTTI Base Class Array'
	DD	imagerel ??_R1A@?0A@EA@exception@std@@8
	ORG $+3
rdata$r	ENDS
;	COMDAT ??_R2A@@8
rdata$r	SEGMENT
??_R2A@@8 DD	imagerel ??_R1A@?0A@EA@A@@8		; A::`RTTI Base Class Array'
	ORG $+3
rdata$r	ENDS
;	COMDAT ??_R2B@@8
rdata$r	SEGMENT
??_R2B@@8 DD	imagerel ??_R1A@?0A@EA@B@@8		; B::`RTTI Base Class Array'
	DD	imagerel ??_R1A@?0A@EA@A@@8
	ORG $+3
rdata$r	ENDS
;	COMDAT ??_C@_0BH@MPGAMBMA@invalid?5bitset?$DMN?$DO?5char?$AA@
CONST	SEGMENT
??_C@_0BH@MPGAMBMA@invalid?5bitset?$DMN?$DO?5char?$AA@ DB 'invalid bitset'
	DB	'<N> char', 00H				; `string'
CONST	ENDS
;	COMDAT ??_C@_0BL@HMFHJKFH@invalid?5bitset?$DMN?$DO?5position?$AA@
CONST	SEGMENT
??_C@_0BL@HMFHJKFH@invalid?5bitset?$DMN?$DO?5position?$AA@ DB 'invalid bi'
	DB	'tset<N> position', 00H			; `string'
CONST	ENDS
;	COMDAT ??_C@_0BI@CFPLBAOH@invalid?5string?5position?$AA@
CONST	SEGMENT
??_C@_0BI@CFPLBAOH@invalid?5string?5position?$AA@ DB 'invalid string posi'
	DB	'tion', 00H					; `string'
CONST	ENDS
;	COMDAT ??_C@_0BA@JFNIOLAK@string?5too?5long?$AA@
CONST	SEGMENT
??_C@_0BA@JFNIOLAK@string?5too?5long?$AA@ DB 'string too long', 00H ; `string'
CONST	ENDS
;	COMDAT ??_C@_0BD@OLBABOEK@vector?$DMT?$DO?5too?5long?$AA@
CONST	SEGMENT
??_C@_0BD@OLBABOEK@vector?$DMT?$DO?5too?5long?$AA@ DB 'vector<T> too long'
	DB	00H						; `string'
CONST	ENDS
;	COMDAT ??_C@_0BAB@LMILMGBN@?$AA?$AB?$AB?$AC?$AB?$AC?$AC?$AD?$AB?$AC?$AC?$AD?$AC?$AD?$AD?$AE?$AB?$AC?$AC?$AD?$AC?$AD?$AD?$AE?$AC?$AD?$AD?$AE?$AD?$AE?$AE?$AF@
CONST	SEGMENT
??_C@_0BAB@LMILMGBN@?$AA?$AB?$AB?$AC?$AB?$AC?$AC?$AD?$AB?$AC?$AC?$AD?$AC?$AD?$AD?$AE?$AB?$AC?$AC?$AD?$AC?$AD?$AD?$AE?$AC?$AD?$AD?$AE?$AD?$AE?$AE?$AF@ DB 00H
	DB	01H, 01H, 02H, 01H, 02H, 02H, 03H, 01H, 02H, 02H, 03H, 02H, 03H
	DB	03H, 04H, 01H, 02H, 02H, 03H, 02H, 03H, 03H, 04H, 02H, 03H, 03H
	DB	04H, 03H, 04H, 04H, 05H, 01H, 02H, 02H, 03H, 02H, 03H, 03H, 04H
	DB	02H, 03H, 03H, 04H, 03H, 04H, 04H, 05H, 02H, 03H, 03H, 04H, 03H
	DB	04H, 04H, 05H, 03H, 04H, 04H, 05H, 04H, 05H, 05H, 06H, 01H, 02H
	DB	02H, 03H, 02H, 03H, 03H, 04H, 02H, 03H, 03H, 04H, 03H, 04H, 04H
	DB	05H, 02H, 03H, 03H, 04H, 03H, 04H, 04H, 05H, 03H, 04H, 04H, 05H
	DB	04H, 05H, 05H, 06H, 02H, 03H, 03H, 04H, 03H, 04H, 04H, 05H, 03H
	DB	04H, 04H, 05H, 04H, 05H, 05H, 06H, 03H, 04H, 04H, 05H, 04H, 05H
	DB	05H, 06H, 04H, 05H, 05H, 06H, 05H, 06H, 06H, 07H, 01H, 02H, 02H
	DB	03H, 02H, 03H, 03H, 04H, 02H, 03H, 03H, 04H, 03H, 04H, 04H, 05H
	DB	02H, 03H, 03H, 04H, 03H, 04H, 04H, 05H, 03H, 04H, 04H, 05H, 04H
	DB	05H, 05H, 06H, 02H, 03H, 03H, 04H, 03H, 04H, 04H, 05H, 03H, 04H
	DB	04H, 05H, 04H, 05H, 05H, 06H, 03H, 04H, 04H, 05H, 04H, 05H, 05H
	DB	06H, 04H, 05H, 05H, 06H, 05H, 06H, 06H, 07H, 02H, 03H, 03H, 04H
	DB	03H, 04H, 04H, 05H, 03H, 04H, 04H, 05H, 04H, 05H, 05H, 06H, 03H
	DB	04H, 04H, 05H, 04H, 05H, 05H, 06H, 04H, 05H, 05H, 06H, 05H, 06H
	DB	06H, 07H, 03H, 04H, 04H, 05H, 04H, 05H, 05H, 06H, 04H, 05H, 05H
	DB	06H, 05H, 06H, 06H, 07H, 04H, 05H, 05H, 06H, 05H, 06H, 06H, 07H
	DB	05H, 06H, 06H, 07H, 06H, 07H, 07H, 08H, 00H	; `string'
CONST	ENDS
;	COMDAT ??_C@_0BF@LCPDDHIM@_MSVC_LANG?5?3?5C?$CL?$CL?$CFd?5?6?$AA@
CONST	SEGMENT
??_C@_0BF@LCPDDHIM@_MSVC_LANG?5?3?5C?$CL?$CL?$CFd?5?6?$AA@ DB '_MSVC_LANG'
	DB	' : C++%d ', 0aH, 00H			; `string'
CONST	ENDS
;	COMDAT ??_C@_0BF@KIDMNPKL@_MSVC_LANG?5?3?5C?$CL?$CL?$CFx?5?6?$AA@
CONST	SEGMENT
??_C@_0BF@KIDMNPKL@_MSVC_LANG?5?3?5C?$CL?$CL?$CFx?5?6?$AA@ DB '_MSVC_LANG'
	DB	' : C++%x ', 0aH, 00H			; `string'
CONST	ENDS
;	COMDAT ??_C@_0BC@KADPAEDI@_MSC_BUILD?5?3?5?$CFd?5?6?$AA@
CONST	SEGMENT
??_C@_0BC@KADPAEDI@_MSC_BUILD?5?3?5?$CFd?5?6?$AA@ DB '_MSC_BUILD : %d ', 0aH
	DB	00H						; `string'
CONST	ENDS
;	COMDAT ??_C@_0BF@BEJHHADK@_MSC_FULL_VER?5?3?5?$CFd?5?6?$AA@
CONST	SEGMENT
??_C@_0BF@BEJHHADK@_MSC_FULL_VER?5?3?5?$CFd?5?6?$AA@ DB '_MSC_FULL_VER : '
	DB	'%d ', 0aH, 00H				; `string'
CONST	ENDS
;	COMDAT ??_C@_0BA@EPPCIFJO@_MSC_VER?5?3?5?$CFd?5?6?$AA@
CONST	SEGMENT
??_C@_0BA@EPPCIFJO@_MSC_VER?5?3?5?$CFd?5?6?$AA@ DB '_MSC_VER : %d ', 0aH, 00H ; `string'
CONST	ENDS
;	COMDAT ??_C@_09ODOBMKFB@UINT_MAX?3?$AA@
CONST	SEGMENT
??_C@_09ODOBMKFB@UINT_MAX?3?$AA@ DB 'UINT_MAX:', 00H	; `string'
CONST	ENDS
;	COMDAT ??_C@_05JFEKDPJM@npos?3?$AA@
CONST	SEGMENT
??_C@_05JFEKDPJM@npos?3?$AA@ DB 'npos:', 00H		; `string'
CONST	ENDS
;	COMDAT ??_C@_01KMDKNFGN@?1?$AA@
CONST	SEGMENT
??_C@_01KMDKNFGN@?1?$AA@ DB '/', 00H			; `string'
CONST	ENDS
;	COMDAT ??_C@_01NEMOKFLO@?$DN?$AA@
CONST	SEGMENT
??_C@_01NEMOKFLO@?$DN?$AA@ DB '=', 00H			; `string'
CONST	ENDS
;	COMDAT ??_C@_01IHBHIGKO@?0?$AA@
CONST	SEGMENT
??_C@_01IHBHIGKO@?0?$AA@ DB ',', 00H			; `string'
CONST	ENDS
;	COMDAT ??_C@_0BD@JKFHIDFG@?5has?5no?5bits?5set?4?6?$AA@
CONST	SEGMENT
??_C@_0BD@JKFHIDFG@?5has?5no?5bits?5set?4?6?$AA@ DB ' has no bits set.', 0aH
	DB	00H						; `string'
CONST	ENDS
;	COMDAT ??_C@_05KAHKAFCL@?5has?5?$AA@
CONST	SEGMENT
??_C@_05KAHKAFCL@?5has?5?$AA@ DB ' has ', 00H		; `string'
CONST	ENDS
;	COMDAT ??_C@_0M@JHJOMOE@?5bits?5set?4?6?$AA@
CONST	SEGMENT
??_C@_0M@JHJOMOE@?5bits?5set?4?6?$AA@ DB ' bits set.', 0aH, 00H ; `string'
CONST	ENDS
;	COMDAT ??_C@_0CA@EHIGNEEA@Please?0?5enter?5a?5binary?5number?3?5?$AA@
CONST	SEGMENT
??_C@_0CA@EHIGNEEA@Please?0?5enter?5a?5binary?5number?3?5?$AA@ DB 'Please'
	DB	', enter a binary number: ', 00H		; `string'
CONST	ENDS
;	COMDAT ??_C@_09CLDCNNLM@Steinhaus?$AA@
CONST	SEGMENT
??_C@_09CLDCNNLM@Steinhaus?$AA@ DB 'Steinhaus', 00H	; `string'
CONST	ENDS
;	COMDAT ??_C@_04HGHEBDJD@Jona?$AA@
CONST	SEGMENT
??_C@_04HGHEBDJD@Jona?$AA@ DB 'Jona', 00H		; `string'
CONST	ENDS
;	COMDAT ??_C@_01CLKCMJKC@?5?$AA@
CONST	SEGMENT
??_C@_01CLKCMJKC@?5?$AA@ DB ' ', 00H			; `string'
CONST	ENDS
;	COMDAT ??_C@_0BA@OHOGMNKK@sizeof?$CIbools?$CJ?$DN?5?$AA@
CONST	SEGMENT
??_C@_0BA@OHOGMNKK@sizeof?$CIbools?$CJ?$DN?5?$AA@ DB 'sizeof(bools)= ', 00H ; `string'
CONST	ENDS
;	COMDAT ??_C@_0BF@PMMONCA@sizeof?$CIfixedarray?$CJ?$DN?5?$AA@
CONST	SEGMENT
??_C@_0BF@PMMONCA@sizeof?$CIfixedarray?$CJ?$DN?5?$AA@ DB 'sizeof(fixedarr'
	DB	'ay)= ', 00H					; `string'
CONST	ENDS
;	COMDAT ??_C@_0BC@KPJBILHM@Hessische?5STrasse?$AA@
CONST	SEGMENT
??_C@_0BC@KPJBILHM@Hessische?5STrasse?$AA@ DB 'Hessische STrasse', 00H ; `string'
CONST	ENDS
;	COMDAT ??_C@_04FOHCOOKI@Jani?$AA@
CONST	SEGMENT
??_C@_04FOHCOOKI@Jani?$AA@ DB 'Jani', 00H		; `string'
CONST	ENDS
;	COMDAT ??_C@_07KJJODDNJ@4218086?$AA@
CONST	SEGMENT
??_C@_07KJJODDNJ@4218086?$AA@ DB '4218086', 00H		; `string'
CONST	ENDS
;	COMDAT ??_C@_05KECJILOC@Peter?$AA@
CONST	SEGMENT
??_C@_05KECJILOC@Peter?$AA@ DB 'Peter', 00H		; `string'
CONST	ENDS
;	COMDAT ??_C@_07POJDIGN@4318086?$AA@
CONST	SEGMENT
??_C@_07POJDIGN@4318086?$AA@ DB '4318086', 00H		; `string'
CONST	ENDS
;	COMDAT ??_C@_04BMONCBKL@D4?01?$AA@
CONST	SEGMENT
??_C@_04BMONCBKL@D4?01?$AA@ DB 'D4,1', 00H		; `string'
CONST	ENDS
;	COMDAT ??_C@_0M@EDPAHMEG@Pappelallee?$AA@
CONST	SEGMENT
??_C@_0M@EDPAHMEG@Pappelallee?$AA@ DB 'Pappelallee', 00H ; `string'
CONST	ENDS
;	COMDAT ??_C@_02MDDDDAID@0x?$AA@
CONST	SEGMENT
??_C@_02MDDDDAID@0x?$AA@ DB '0x', 00H			; `string'
CONST	ENDS
;	COMDAT ??_C@_02EGOFBIJA@?$DN?$DN?$AA@
CONST	SEGMENT
??_C@_02EGOFBIJA@?$DN?$DN?$AA@ DB '==', 00H		; `string'
CONST	ENDS
;	COMDAT ??_C@_0BA@FOFKOMMP@?5was?5not?5found?4?$AA@
CONST	SEGMENT
??_C@_0BA@FOFKOMMP@?5was?5not?5found?4?$AA@ DB ' was not found.', 00H ; `string'
CONST	ENDS
;	COMDAT ??_C@_06GECNACHD@Name?3?5?$AA@
CONST	SEGMENT
??_C@_06GECNACHD@Name?3?5?$AA@ DB 'Name: ', 00H		; `string'
CONST	ENDS
;	COMDAT ??_C@_0M@PKKJBGBP@?5was?5found?4?$AA@
CONST	SEGMENT
??_C@_0M@PKKJBGBP@?5was?5found?4?$AA@ DB ' was found.', 00H ; `string'
CONST	ENDS
;	COMDAT ??_C@_0BI@OLJNFCOG@Enter?5a?5name?5to?5search?3?$AA@
CONST	SEGMENT
??_C@_0BI@OLJNFCOG@Enter?5a?5name?5to?5search?3?$AA@ DB 'Enter a name to '
	DB	'search:', 00H				; `string'
CONST	ENDS
;	COMDAT ??_C@_05HKGIJGOH@name?3?$AA@
CONST	SEGMENT
??_C@_05HKGIJGOH@name?3?$AA@ DB 'name:', 00H		; `string'
CONST	ENDS
;	COMDAT ??_C@_06NCOGOMNI@B?5ctor?$AA@
CONST	SEGMENT
??_C@_06NCOGOMNI@B?5ctor?$AA@ DB 'B ctor', 00H		; `string'
CONST	ENDS
;	COMDAT ??_C@_06FJPICAAH@Size?$DN?5?$AA@
CONST	SEGMENT
??_C@_06FJPICAAH@Size?$DN?5?$AA@ DB 'Size= ', 00H	; `string'
CONST	ENDS
;	COMDAT ??_C@_08DBLECGNM@Sizeof?$DN?5?$AA@
CONST	SEGMENT
??_C@_08DBLECGNM@Sizeof?$DN?5?$AA@ DB 'Sizeof= ', 00H	; `string'
CONST	ENDS
;	COMDAT ??_C@_04GEACBGGK@Id?3?5?$AA@
CONST	SEGMENT
??_C@_04GEACBGGK@Id?3?5?$AA@ DB 'Id: ', 00H		; `string'
CONST	ENDS
;	COMDAT ??_C@_07GFBFGADC@?5Name?3?5?$AA@
CONST	SEGMENT
??_C@_07GFBFGADC@?5Name?3?5?$AA@ DB ' Name: ', 00H	; `string'
CONST	ENDS
;	COMDAT ??_C@_08BJFIKPMA@?5Phone?3?5?$AA@
CONST	SEGMENT
??_C@_08BJFIKPMA@?5Phone?3?5?$AA@ DB ' Phone: ', 00H	; `string'
CONST	ENDS
;	COMDAT ??_C@_09BKNEKCHJ@?5Street?3?5?$AA@
CONST	SEGMENT
??_C@_09BKNEKCHJ@?5Street?3?5?$AA@ DB ' Street: ', 00H	; `string'
CONST	ENDS
;	COMDAT ??_C@_08EPJLHIJG@bad?5cast?$AA@
CONST	SEGMENT
??_C@_08EPJLHIJG@bad?5cast?$AA@ DB 'bad cast', 00H	; `string'
CONST	ENDS
;	COMDAT ??_C@_0BC@EOODALEL@Unknown?5exception?$AA@
CONST	SEGMENT
??_C@_0BC@EOODALEL@Unknown?5exception?$AA@ DB 'Unknown exception', 00H ; `string'
CONST	ENDS
PUBLIC	printf
PUBLIC	_vfprintf_l
PUBLIC	__local_stdio_printf_options
PUBLIC	??$__vcrt_va_start_verify_argument_type@QEBD@@YAXXZ ; __vcrt_va_start_verify_argument_type<char const * __ptr64 const>
PUBLIC	??$construct@V?$basic_string@DU?$char_traits@D@std@@V?$allocator@D@2@@std@@AEBV12@@?$allocator@V?$basic_string@DU?$char_traits@D@std@@V?$allocator@D@2@@std@@@std@@QEAAXPEAV?$basic_string@DU?$char_traits@D@std@@V?$allocator@D@2@@1@AEBV21@@Z ; std::allocator<std::basic_string<char,std::char_traits<char>,std::allocator<char> > >::construct<std::basic_string<char,std::char_traits<char>,std::allocator<char> >,std::basic_string<char,std::char_traits<char>,std::allocator<char> > const & __ptr64>
PUBLIC	??$construct@V?$basic_string@DU?$char_traits@D@std@@V?$allocator@D@2@@std@@AEBV12@@?$allocator_traits@V?$allocator@V?$basic_string@DU?$char_traits@D@std@@V?$allocator@D@2@@std@@@std@@@std@@SAXAEAV?$allocator@V?$basic_string@DU?$char_traits@D@std@@V?$allocator@D@2@@std@@@1@PEAV?$basic_string@DU?$char_traits@D@std@@V?$allocator@D@2@@1@AEBV31@@Z ; std::allocator_traits<std::allocator<std::basic_string<char,std::char_traits<char>,std::allocator<char> > > >::construct<std::basic_string<char,std::char_traits<char>,std::allocator<char> >,std::basic_string<char,std::char_traits<char>,std::allocator<char> > const & __ptr64>
PUBLIC	??$forward@AEBV?$basic_string@DU?$char_traits@D@std@@V?$allocator@D@2@@std@@@std@@YAAEBV?$basic_string@DU?$char_traits@D@std@@V?$allocator@D@2@@0@AEBV10@@Z ; std::forward<std::basic_string<char,std::char_traits<char>,std::allocator<char> > const & __ptr64>
PUBLIC	??$_Copy_memmove@PEAPEAVAddress@@PEAPEAV1@@std@@YAPEAPEAVAddress@@PEAPEAV1@00@Z ; std::_Copy_memmove<Address * __ptr64 * __ptr64,Address * __ptr64 * __ptr64>
PUBLIC	??$swap@DU?$char_traits@D@std@@V?$allocator@D@2@@std@@YAXAEAV?$basic_string@DU?$char_traits@D@std@@V?$allocator@D@2@@0@0@Z ; std::swap<char,std::char_traits<char>,std::allocator<char> >
PUBLIC	??$construct@V?$basic_string@DU?$char_traits@D@std@@V?$allocator@D@2@@std@@AEBV12@@?$_Wrap_alloc@V?$allocator@V?$basic_string@DU?$char_traits@D@std@@V?$allocator@D@2@@std@@@std@@@std@@QEAAXPEAV?$basic_string@DU?$char_traits@D@std@@V?$allocator@D@2@@1@AEBV21@@Z ; std::_Wrap_alloc<std::allocator<std::basic_string<char,std::char_traits<char>,std::allocator<char> > > >::construct<std::basic_string<char,std::char_traits<char>,std::allocator<char> >,std::basic_string<char,std::char_traits<char>,std::allocator<char> > const & __ptr64>
PUBLIC	??$_Copy_memmove@PEBQEAVPerson@@PEAPEAV1@@std@@YAPEAPEAVPerson@@PEBQEAV1@0PEAPEAV1@@Z ; std::_Copy_memmove<Person * __ptr64 const * __ptr64,Person * __ptr64 * __ptr64>
PUBLIC	??$swap@PEAVAddress@@X@std@@YAXAEAPEAVAddress@@0@Z ; std::swap<Address * __ptr64,void>
PUBLIC	??$_Copy_memmove@PEBQEAVAddress@@PEAPEAV1@@std@@YAPEAPEAVAddress@@PEBQEAV1@0PEAPEAV1@@Z ; std::_Copy_memmove<Address * __ptr64 const * __ptr64,Address * __ptr64 * __ptr64>
PUBLIC	??$_Copy_memmove@PEBHPEAH@std@@YAPEAHPEBH0PEAH@Z ; std::_Copy_memmove<int const * __ptr64,int * __ptr64>
PUBLIC	??$_Uninitialized_move_al_unchecked1@PEAVAddress@@PEAV1@V?$allocator@PEAVAddress@@@std@@@std@@YAPEAPEAVAddress@@PEAPEAV1@00AEAU?$_Wrap_alloc@V?$allocator@PEAVAddress@@@std@@@0@U_Really_trivial_ptr_iterator_tag@0@U?$integral_constant@_N$00@0@@Z ; std::_Uninitialized_move_al_unchecked1<Address * __ptr64,Address * __ptr64,std::allocator<Address * __ptr64> >
PUBLIC	??$_Ptr_move_cat@PEAVAddress@@PEAV1@@std@@YA?AU_Really_trivial_ptr_iterator_tag@0@AEBQEAPEAVAddress@@0@Z ; std::_Ptr_move_cat<Address * __ptr64,Address * __ptr64>
PUBLIC	??$iter_swap@PEAV?$basic_string@DU?$char_traits@D@std@@V?$allocator@D@2@@std@@PEAV12@@std@@YAXPEAV?$basic_string@DU?$char_traits@D@std@@V?$allocator@D@2@@0@0@Z ; std::iter_swap<std::basic_string<char,std::char_traits<char>,std::allocator<char> > * __ptr64,std::basic_string<char,std::char_traits<char>,std::allocator<char> > * __ptr64>
PUBLIC	??$_Uninitialized_copy_al_unchecked1@PEBV?$basic_string@DU?$char_traits@D@std@@V?$allocator@D@2@@std@@PEAV12@V?$allocator@V?$basic_string@DU?$char_traits@D@std@@V?$allocator@D@2@@std@@@2@@std@@YAPEAV?$basic_string@DU?$char_traits@D@std@@V?$allocator@D@2@@0@PEBV10@0PEAV10@AEAU?$_Wrap_alloc@V?$allocator@V?$basic_string@DU?$char_traits@D@std@@V?$allocator@D@2@@std@@@std@@@0@U_General_ptr_iterator_tag@0@U_Any_tag@0@@Z ; std::_Uninitialized_copy_al_unchecked1<std::basic_string<char,std::char_traits<char>,std::allocator<char> > const * __ptr64,std::basic_string<char,std::char_traits<char>,std::allocator<char> > * __ptr64,std::allocator<std::basic_string<char,std::char_traits<char>,std::allocator<char> > > >
PUBLIC	??$_Ptr_copy_cat@$$CBV?$basic_string@DU?$char_traits@D@std@@V?$allocator@D@2@@std@@V12@@std@@YA?AU_General_ptr_iterator_tag@0@AEBQEBV?$basic_string@DU?$char_traits@D@std@@V?$allocator@D@2@@0@AEBQEAV20@@Z ; std::_Ptr_copy_cat<std::basic_string<char,std::char_traits<char>,std::allocator<char> > const ,std::basic_string<char,std::char_traits<char>,std::allocator<char> > >
PUBLIC	??$_Uninitialized_copy_al_unchecked1@QEAVPerson@@PEAV1@V?$allocator@PEAVPerson@@@std@@@std@@YAPEAPEAVPerson@@PEBQEAV1@0PEAPEAV1@AEAU?$_Wrap_alloc@V?$allocator@PEAVPerson@@@std@@@0@U_Really_trivial_ptr_iterator_tag@0@U?$integral_constant@_N$00@0@@Z ; std::_Uninitialized_copy_al_unchecked1<Person * __ptr64 const,Person * __ptr64,std::allocator<Person * __ptr64> >
PUBLIC	??$_Ptr_copy_cat@QEAVPerson@@PEAV1@@std@@YA?AU_Really_trivial_ptr_iterator_tag@0@AEBQEBQEAVPerson@@AEBQEAPEAV2@@Z ; std::_Ptr_copy_cat<Person * __ptr64 const,Person * __ptr64>
PUBLIC	??$iter_swap@PEAPEAVAddress@@PEAPEAV1@@std@@YAXPEAPEAVAddress@@0@Z ; std::iter_swap<Address * __ptr64 * __ptr64,Address * __ptr64 * __ptr64>
PUBLIC	??$_Uninitialized_copy_al_unchecked1@QEAVAddress@@PEAV1@V?$allocator@PEAVAddress@@@std@@@std@@YAPEAPEAVAddress@@PEBQEAV1@0PEAPEAV1@AEAU?$_Wrap_alloc@V?$allocator@PEAVAddress@@@std@@@0@U_Really_trivial_ptr_iterator_tag@0@U?$integral_constant@_N$00@0@@Z ; std::_Uninitialized_copy_al_unchecked1<Address * __ptr64 const,Address * __ptr64,std::allocator<Address * __ptr64> >
PUBLIC	??$_Ptr_copy_cat@QEAVAddress@@PEAV1@@std@@YA?AU_Really_trivial_ptr_iterator_tag@0@AEBQEBQEAVAddress@@AEBQEAPEAV2@@Z ; std::_Ptr_copy_cat<Address * __ptr64 const,Address * __ptr64>
PUBLIC	??$_Uninitialized_copy_al_unchecked1@$$CBHHV?$allocator@H@std@@@std@@YAPEAHPEBH0PEAHAEAU?$_Wrap_alloc@V?$allocator@H@std@@@0@U_Really_trivial_ptr_iterator_tag@0@U?$integral_constant@_N$00@0@@Z ; std::_Uninitialized_copy_al_unchecked1<int const ,int,std::allocator<int> >
PUBLIC	??$_Ptr_copy_cat@$$CBHH@std@@YA?AU_Really_trivial_ptr_iterator_tag@0@AEBQEBHAEBQEAH@Z ; std::_Ptr_copy_cat<int const ,int>
PUBLIC	??_G?$basic_string@DU?$char_traits@D@std@@V?$allocator@D@2@@std@@QEAAPEAXI@Z ; std::basic_string<char,std::char_traits<char>,std::allocator<char> >::`scalar deleting destructor'
PUBLIC	??$_Uninitialized_move_al_unchecked@PEAPEAVAddress@@PEAPEAV1@V?$allocator@PEAVAddress@@@std@@@std@@YAPEAPEAVAddress@@PEAPEAV1@00AEAU?$_Wrap_alloc@V?$allocator@PEAVAddress@@@std@@@0@@Z ; std::_Uninitialized_move_al_unchecked<Address * __ptr64 * __ptr64,Address * __ptr64 * __ptr64,std::allocator<Address * __ptr64> >
PUBLIC	??$destroy@V?$basic_string@DU?$char_traits@D@std@@V?$allocator@D@2@@std@@@?$allocator@V?$basic_string@DU?$char_traits@D@std@@V?$allocator@D@2@@std@@@std@@QEAAXPEAV?$basic_string@DU?$char_traits@D@std@@V?$allocator@D@2@@1@@Z ; std::allocator<std::basic_string<char,std::char_traits<char>,std::allocator<char> > >::destroy<std::basic_string<char,std::char_traits<char>,std::allocator<char> > >
PUBLIC	??$_Reverse_unchecked@PEAV?$basic_string@DU?$char_traits@D@std@@V?$allocator@D@2@@std@@@std@@YAXPEAV?$basic_string@DU?$char_traits@D@std@@V?$allocator@D@2@@0@0@Z ; std::_Reverse_unchecked<std::basic_string<char,std::char_traits<char>,std::allocator<char> > * __ptr64>
PUBLIC	??$construct@V?$basic_string@DU?$char_traits@D@std@@V?$allocator@D@2@@std@@V12@@?$allocator@V?$basic_string@DU?$char_traits@D@std@@V?$allocator@D@2@@std@@@std@@QEAAXPEAV?$basic_string@DU?$char_traits@D@std@@V?$allocator@D@2@@1@$$QEAV21@@Z ; std::allocator<std::basic_string<char,std::char_traits<char>,std::allocator<char> > >::construct<std::basic_string<char,std::char_traits<char>,std::allocator<char> >,std::basic_string<char,std::char_traits<char>,std::allocator<char> > >
PUBLIC	??$_Uninitialized_copy_al_unchecked@PEBV?$basic_string@DU?$char_traits@D@std@@V?$allocator@D@2@@std@@PEAV12@V?$allocator@V?$basic_string@DU?$char_traits@D@std@@V?$allocator@D@2@@std@@@2@@std@@YAPEAV?$basic_string@DU?$char_traits@D@std@@V?$allocator@D@2@@0@PEBV10@0PEAV10@AEAU?$_Wrap_alloc@V?$allocator@V?$basic_string@DU?$char_traits@D@std@@V?$allocator@D@2@@std@@@std@@@0@@Z ; std::_Uninitialized_copy_al_unchecked<std::basic_string<char,std::char_traits<char>,std::allocator<char> > const * __ptr64,std::basic_string<char,std::char_traits<char>,std::allocator<char> > * __ptr64,std::allocator<std::basic_string<char,std::char_traits<char>,std::allocator<char> > > >
PUBLIC	??$_Unchecked@PEBV?$basic_string@DU?$char_traits@D@std@@V?$allocator@D@2@@std@@@std@@YAPEBV?$basic_string@DU?$char_traits@D@std@@V?$allocator@D@2@@0@PEBV10@@Z ; std::_Unchecked<std::basic_string<char,std::char_traits<char>,std::allocator<char> > const * __ptr64>
PUBLIC	??$construct@V?$basic_string@DU?$char_traits@D@std@@V?$allocator@D@2@@std@@$$V@?$allocator@V?$basic_string@DU?$char_traits@D@std@@V?$allocator@D@2@@std@@@std@@QEAAXPEAV?$basic_string@DU?$char_traits@D@std@@V?$allocator@D@2@@1@@Z ; std::allocator<std::basic_string<char,std::char_traits<char>,std::allocator<char> > >::construct<std::basic_string<char,std::char_traits<char>,std::allocator<char> > >
PUBLIC	??$_Rechecked@PEAPEAVPerson@@PEAPEAV1@@std@@YAAEAPEAPEAVPerson@@AEAPEAPEAV1@PEAPEAV1@@Z ; std::_Rechecked<Person * __ptr64 * __ptr64,Person * __ptr64 * __ptr64>
PUBLIC	??$_Uninitialized_copy_al_unchecked@PEBQEAVPerson@@PEAPEAV1@V?$allocator@PEAVPerson@@@std@@@std@@YAPEAPEAVPerson@@PEBQEAV1@0PEAPEAV1@AEAU?$_Wrap_alloc@V?$allocator@PEAVPerson@@@std@@@0@@Z ; std::_Uninitialized_copy_al_unchecked<Person * __ptr64 const * __ptr64,Person * __ptr64 * __ptr64,std::allocator<Person * __ptr64> >
PUBLIC	??$_Unchecked@PEAPEAVPerson@@@std@@YAPEAPEAVPerson@@PEAPEAV1@@Z ; std::_Unchecked<Person * __ptr64 * __ptr64>
PUBLIC	??$_Unchecked@PEBQEAVPerson@@@std@@YAPEBQEAVPerson@@PEBQEAV1@@Z ; std::_Unchecked<Person * __ptr64 const * __ptr64>
PUBLIC	??$_Reverse_unchecked@PEAPEAVAddress@@@std@@YAXPEAPEAVAddress@@0@Z ; std::_Reverse_unchecked<Address * __ptr64 * __ptr64>
PUBLIC	??$construct@PEAVAddress@@PEAV1@@?$allocator@PEAVAddress@@@std@@QEAAXPEAPEAVAddress@@$$QEAPEAV2@@Z ; std::allocator<Address * __ptr64>::construct<Address * __ptr64,Address * __ptr64>
PUBLIC	??$_Rechecked@PEAPEAVAddress@@PEAPEAV1@@std@@YAAEAPEAPEAVAddress@@AEAPEAPEAV1@PEAPEAV1@@Z ; std::_Rechecked<Address * __ptr64 * __ptr64,Address * __ptr64 * __ptr64>
PUBLIC	??$_Uninitialized_copy_al_unchecked@PEBQEAVAddress@@PEAPEAV1@V?$allocator@PEAVAddress@@@std@@@std@@YAPEAPEAVAddress@@PEBQEAV1@0PEAPEAV1@AEAU?$_Wrap_alloc@V?$allocator@PEAVAddress@@@std@@@0@@Z ; std::_Uninitialized_copy_al_unchecked<Address * __ptr64 const * __ptr64,Address * __ptr64 * __ptr64,std::allocator<Address * __ptr64> >
PUBLIC	??$_Unchecked@PEAPEAVAddress@@@std@@YAPEAPEAVAddress@@PEAPEAV1@@Z ; std::_Unchecked<Address * __ptr64 * __ptr64>
PUBLIC	??$_Unchecked@PEBQEAVAddress@@@std@@YAPEBQEAVAddress@@PEBQEAV1@@Z ; std::_Unchecked<Address * __ptr64 const * __ptr64>
PUBLIC	??$_Rechecked@PEAHPEAH@std@@YAAEAPEAHAEAPEAHPEAH@Z ; std::_Rechecked<int * __ptr64,int * __ptr64>
PUBLIC	??$_Uninitialized_copy_al_unchecked@PEBHPEAHV?$allocator@H@std@@@std@@YAPEAHPEBH0PEAHAEAU?$_Wrap_alloc@V?$allocator@H@std@@@0@@Z ; std::_Uninitialized_copy_al_unchecked<int const * __ptr64,int * __ptr64,std::allocator<int> >
PUBLIC	??$_Unchecked@PEAH@std@@YAPEAHPEAH@Z		; std::_Unchecked<int * __ptr64>
PUBLIC	??$_Unchecked@PEBH@std@@YAPEBHPEBH@Z		; std::_Unchecked<int const * __ptr64>
PUBLIC	??$?0AEBV?$allocator@D@std@@@?$_Wrap_alloc@V?$allocator@D@std@@@std@@QEAA@AEBV?$allocator@D@1@@Z ; std::_Wrap_alloc<std::allocator<char> >::_Wrap_alloc<std::allocator<char> ><std::allocator<char> const & __ptr64>
PUBLIC	??$_Uninitialized_move@PEAPEAVAddress@@PEAPEAV1@V?$allocator@PEAVAddress@@@std@@@std@@YAPEAPEAVAddress@@PEAPEAV1@00AEAU?$_Wrap_alloc@V?$allocator@PEAVAddress@@@std@@@0@@Z ; std::_Uninitialized_move<Address * __ptr64 * __ptr64,Address * __ptr64 * __ptr64,std::allocator<Address * __ptr64> >
PUBLIC	??$destroy@V?$basic_string@DU?$char_traits@D@std@@V?$allocator@D@2@@std@@@?$allocator_traits@V?$allocator@V?$basic_string@DU?$char_traits@D@std@@V?$allocator@D@2@@std@@@std@@@std@@SAXAEAV?$allocator@V?$basic_string@DU?$char_traits@D@std@@V?$allocator@D@2@@std@@@1@PEAV?$basic_string@DU?$char_traits@D@std@@V?$allocator@D@2@@1@@Z ; std::allocator_traits<std::allocator<std::basic_string<char,std::char_traits<char>,std::allocator<char> > > >::destroy<std::basic_string<char,std::char_traits<char>,std::allocator<char> > >
PUBLIC	??$?0U?$integral_constant@_N$00@std@@@_Any_tag@std@@QEAA@$$QEAU?$integral_constant@_N$00@1@@Z ; std::_Any_tag::_Any_tag<std::integral_constant<bool,1> >
PUBLIC	??$_Uninitialized_move_al_unchecked1@PEAV?$basic_string@DU?$char_traits@D@std@@V?$allocator@D@2@@std@@PEAV12@V?$allocator@V?$basic_string@DU?$char_traits@D@std@@V?$allocator@D@2@@std@@@2@@std@@YAPEAV?$basic_string@DU?$char_traits@D@std@@V?$allocator@D@2@@0@PEAV10@00AEAU?$_Wrap_alloc@V?$allocator@V?$basic_string@DU?$char_traits@D@std@@V?$allocator@D@2@@std@@@std@@@0@U_General_ptr_iterator_tag@0@U_Any_tag@0@@Z ; std::_Uninitialized_move_al_unchecked1<std::basic_string<char,std::char_traits<char>,std::allocator<char> > * __ptr64,std::basic_string<char,std::char_traits<char>,std::allocator<char> > * __ptr64,std::allocator<std::basic_string<char,std::char_traits<char>,std::allocator<char> > > >
PUBLIC	??$_Ptr_move_cat@V?$basic_string@DU?$char_traits@D@std@@V?$allocator@D@2@@std@@V12@@std@@YA?AU_General_ptr_iterator_tag@0@AEBQEAV?$basic_string@DU?$char_traits@D@std@@V?$allocator@D@2@@0@0@Z ; std::_Ptr_move_cat<std::basic_string<char,std::char_traits<char>,std::allocator<char> >,std::basic_string<char,std::char_traits<char>,std::allocator<char> > >
PUBLIC	??$_Rotate_unchecked1@PEAV?$basic_string@DU?$char_traits@D@std@@V?$allocator@D@2@@std@@@std@@YAPEAV?$basic_string@DU?$char_traits@D@std@@V?$allocator@D@2@@0@PEAV10@00Urandom_access_iterator_tag@0@@Z ; std::_Rotate_unchecked1<std::basic_string<char,std::char_traits<char>,std::allocator<char> > * __ptr64>
PUBLIC	??$construct@V?$basic_string@DU?$char_traits@D@std@@V?$allocator@D@2@@std@@V12@@?$allocator_traits@V?$allocator@V?$basic_string@DU?$char_traits@D@std@@V?$allocator@D@2@@std@@@std@@@std@@SAXAEAV?$allocator@V?$basic_string@DU?$char_traits@D@std@@V?$allocator@D@2@@std@@@1@PEAV?$basic_string@DU?$char_traits@D@std@@V?$allocator@D@2@@1@$$QEAV31@@Z ; std::allocator_traits<std::allocator<std::basic_string<char,std::char_traits<char>,std::allocator<char> > > >::construct<std::basic_string<char,std::char_traits<char>,std::allocator<char> >,std::basic_string<char,std::char_traits<char>,std::allocator<char> > >
PUBLIC	??$_Uninitialized_copy@PEBV?$basic_string@DU?$char_traits@D@std@@V?$allocator@D@2@@std@@PEAV12@V?$allocator@V?$basic_string@DU?$char_traits@D@std@@V?$allocator@D@2@@std@@@2@@std@@YAPEAV?$basic_string@DU?$char_traits@D@std@@V?$allocator@D@2@@0@PEBV10@0PEAV10@AEAU?$_Wrap_alloc@V?$allocator@V?$basic_string@DU?$char_traits@D@std@@V?$allocator@D@2@@std@@@std@@@0@@Z ; std::_Uninitialized_copy<std::basic_string<char,std::char_traits<char>,std::allocator<char> > const * __ptr64,std::basic_string<char,std::char_traits<char>,std::allocator<char> > * __ptr64,std::allocator<std::basic_string<char,std::char_traits<char>,std::allocator<char> > > >
PUBLIC	??$_Distance1@PEBV?$basic_string@DU?$char_traits@D@std@@V?$allocator@D@2@@std@@@std@@YA_JPEBV?$basic_string@DU?$char_traits@D@std@@V?$allocator@D@2@@0@0Urandom_access_iterator_tag@0@@Z ; std::_Distance1<std::basic_string<char,std::char_traits<char>,std::allocator<char> > const * __ptr64>
PUBLIC	??$construct@V?$basic_string@DU?$char_traits@D@std@@V?$allocator@D@2@@std@@$$V@?$allocator_traits@V?$allocator@V?$basic_string@DU?$char_traits@D@std@@V?$allocator@D@2@@std@@@std@@@std@@SAXAEAV?$allocator@V?$basic_string@DU?$char_traits@D@std@@V?$allocator@D@2@@std@@@1@PEAV?$basic_string@DU?$char_traits@D@std@@V?$allocator@D@2@@1@@Z ; std::allocator_traits<std::allocator<std::basic_string<char,std::char_traits<char>,std::allocator<char> > > >::construct<std::basic_string<char,std::char_traits<char>,std::allocator<char> > >
PUBLIC	??$_Uninitialized_copy@PEBQEAVPerson@@PEAPEAV1@V?$allocator@PEAVPerson@@@std@@@std@@YAPEAPEAVPerson@@PEBQEAV1@0PEAPEAV1@AEAU?$_Wrap_alloc@V?$allocator@PEAVPerson@@@std@@@0@@Z ; std::_Uninitialized_copy<Person * __ptr64 const * __ptr64,Person * __ptr64 * __ptr64,std::allocator<Person * __ptr64> >
PUBLIC	??$_Distance1@PEBQEAVPerson@@@std@@YA_JPEBQEAVPerson@@0Urandom_access_iterator_tag@0@@Z ; std::_Distance1<Person * __ptr64 const * __ptr64>
PUBLIC	??$_Rotate_unchecked1@PEAPEAVAddress@@@std@@YAPEAPEAVAddress@@PEAPEAV1@00Urandom_access_iterator_tag@0@@Z ; std::_Rotate_unchecked1<Address * __ptr64 * __ptr64>
PUBLIC	??$construct@PEAVAddress@@PEAV1@@?$allocator_traits@V?$allocator@PEAVAddress@@@std@@@std@@SAXAEAV?$allocator@PEAVAddress@@@1@PEAPEAVAddress@@$$QEAPEAV3@@Z ; std::allocator_traits<std::allocator<Address * __ptr64> >::construct<Address * __ptr64,Address * __ptr64>
PUBLIC	??$_Uninitialized_copy@PEBQEAVAddress@@PEAPEAV1@V?$allocator@PEAVAddress@@@std@@@std@@YAPEAPEAVAddress@@PEBQEAV1@0PEAPEAV1@AEAU?$_Wrap_alloc@V?$allocator@PEAVAddress@@@std@@@0@@Z ; std::_Uninitialized_copy<Address * __ptr64 const * __ptr64,Address * __ptr64 * __ptr64,std::allocator<Address * __ptr64> >
PUBLIC	??$_Distance1@PEBQEAVAddress@@@std@@YA_JPEBQEAVAddress@@0Urandom_access_iterator_tag@0@@Z ; std::_Distance1<Address * __ptr64 const * __ptr64>
PUBLIC	??$_Uninitialized_copy@PEBHPEAHV?$allocator@H@std@@@std@@YAPEAHPEBH0PEAHAEAU?$_Wrap_alloc@V?$allocator@H@std@@@0@@Z ; std::_Uninitialized_copy<int const * __ptr64,int * __ptr64,std::allocator<int> >
PUBLIC	??$_Distance1@PEBH@std@@YA_JPEBH0Urandom_access_iterator_tag@0@@Z ; std::_Distance1<int const * __ptr64>
PUBLIC	??$?0AEBV?$allocator@D@std@@$$V@?$_Compressed_pair@U?$_Wrap_alloc@V?$allocator@D@std@@@std@@V?$_String_val@U?$_Simple_types@D@std@@@2@$00@std@@QEAA@U_One_then_variadic_args_t@1@AEBV?$allocator@D@1@@Z ; std::_Compressed_pair<std::_Wrap_alloc<std::allocator<char> >,std::_String_val<std::_Simple_types<char> >,1>::_Compressed_pair<std::_Wrap_alloc<std::allocator<char> >,std::_String_val<std::_Simple_types<char> >,1><std::allocator<char> const & __ptr64>
PUBLIC	??$forward@AEBV?$allocator@D@std@@@std@@YAAEBV?$allocator@D@0@AEBV10@@Z ; std::forward<std::allocator<char> const & __ptr64>
PUBLIC	??$move@AEAD@std@@YA$$QEADAEAD@Z		; std::move<char & __ptr64>
PUBLIC	?_Trim_if@?$bitset@$0BA@@std@@AEAAXU?$integral_constant@_N$00@2@@Z ; std::bitset<16>::_Trim_if
PUBLIC	?_Trim@?$bitset@$0BA@@std@@AEAAXXZ		; std::bitset<16>::_Trim
PUBLIC	??0?$allocator@V?$basic_string@DU?$char_traits@D@std@@V?$allocator@D@2@@std@@@std@@QEAA@AEBV01@@Z ; std::allocator<std::basic_string<char,std::char_traits<char>,std::allocator<char> > >::allocator<std::basic_string<char,std::char_traits<char>,std::allocator<char> > >
PUBLIC	?_Rechecked@?$_Vector_iterator@V?$_Vector_val@U?$_Simple_types@V?$basic_string@DU?$char_traits@D@std@@V?$allocator@D@2@@std@@@std@@@std@@@std@@QEAAAEAV12@PEAV?$basic_string@DU?$char_traits@D@std@@V?$allocator@D@2@@2@@Z ; std::_Vector_iterator<std::_Vector_val<std::_Simple_types<std::basic_string<char,std::char_traits<char>,std::allocator<char> > > > >::_Rechecked
PUBLIC	?_Unchecked@?$_Vector_iterator@V?$_Vector_val@U?$_Simple_types@V?$basic_string@DU?$char_traits@D@std@@V?$allocator@D@2@@std@@@std@@@std@@@std@@QEBAPEAV?$basic_string@DU?$char_traits@D@std@@V?$allocator@D@2@@2@XZ ; std::_Vector_iterator<std::_Vector_val<std::_Simple_types<std::basic_string<char,std::char_traits<char>,std::allocator<char> > > > >::_Unchecked
PUBLIC	??0?$allocator@PEAVPerson@@@std@@QEAA@AEBV01@@Z	; std::allocator<Person * __ptr64>::allocator<Person * __ptr64>
PUBLIC	??0?$allocator@PEAVAddress@@@std@@QEAA@AEBV01@@Z ; std::allocator<Address * __ptr64>::allocator<Address * __ptr64>
PUBLIC	?_Rechecked@?$_Vector_iterator@V?$_Vector_val@U?$_Simple_types@PEAVAddress@@@std@@@std@@@std@@QEAAAEAV12@PEAPEAVAddress@@@Z ; std::_Vector_iterator<std::_Vector_val<std::_Simple_types<Address * __ptr64> > >::_Rechecked
PUBLIC	?_Unchecked@?$_Vector_iterator@V?$_Vector_val@U?$_Simple_types@PEAVAddress@@@std@@@std@@@std@@QEBAPEAPEAVAddress@@XZ ; std::_Vector_iterator<std::_Vector_val<std::_Simple_types<Address * __ptr64> > >::_Unchecked
PUBLIC	??0?$allocator@H@std@@QEAA@AEBV01@@Z		; std::allocator<int>::allocator<int>
PUBLIC	?set@?$bitset@$0BA@@std@@QEAAAEAV12@_K_N@Z	; std::bitset<16>::set
PUBLIC	?_Tidy@?$bitset@$0BA@@std@@AEAAXK@Z		; std::bitset<16>::_Tidy
PUBLIC	?_Xinv@?$bitset@$0BA@@std@@AEBAXXZ		; std::bitset<16>::_Xinv
PUBLIC	??$_Umove@PEAPEAVAddress@@@?$vector@PEAVAddress@@V?$allocator@PEAVAddress@@@std@@@std@@IEAAPEAPEAVAddress@@PEAPEAV2@00@Z ; std::vector<Address * __ptr64,std::allocator<Address * __ptr64> >::_Umove<Address * __ptr64 * __ptr64>
PUBLIC	??$destroy@V?$basic_string@DU?$char_traits@D@std@@V?$allocator@D@2@@std@@@?$_Wrap_alloc@V?$allocator@V?$basic_string@DU?$char_traits@D@std@@V?$allocator@D@2@@std@@@std@@@std@@QEAAXPEAV?$basic_string@DU?$char_traits@D@std@@V?$allocator@D@2@@1@@Z ; std::_Wrap_alloc<std::allocator<std::basic_string<char,std::char_traits<char>,std::allocator<char> > > >::destroy<std::basic_string<char,std::char_traits<char>,std::allocator<char> > >
PUBLIC	??$_Rechecked@PEAV?$basic_string@DU?$char_traits@D@std@@V?$allocator@D@2@@std@@PEAV12@@std@@YAAEAPEAV?$basic_string@DU?$char_traits@D@std@@V?$allocator@D@2@@0@AEAPEAV10@PEAV10@@Z ; std::_Rechecked<std::basic_string<char,std::char_traits<char>,std::allocator<char> > * __ptr64,std::basic_string<char,std::char_traits<char>,std::allocator<char> > * __ptr64>
PUBLIC	??$_Uninitialized_move_al_unchecked@PEAV?$basic_string@DU?$char_traits@D@std@@V?$allocator@D@2@@std@@PEAV12@V?$allocator@V?$basic_string@DU?$char_traits@D@std@@V?$allocator@D@2@@std@@@2@@std@@YAPEAV?$basic_string@DU?$char_traits@D@std@@V?$allocator@D@2@@0@PEAV10@00AEAU?$_Wrap_alloc@V?$allocator@V?$basic_string@DU?$char_traits@D@std@@V?$allocator@D@2@@std@@@std@@@0@@Z ; std::_Uninitialized_move_al_unchecked<std::basic_string<char,std::char_traits<char>,std::allocator<char> > * __ptr64,std::basic_string<char,std::char_traits<char>,std::allocator<char> > * __ptr64,std::allocator<std::basic_string<char,std::char_traits<char>,std::allocator<char> > > >
PUBLIC	??$_Unchecked@PEAV?$basic_string@DU?$char_traits@D@std@@V?$allocator@D@2@@std@@@std@@YAPEAV?$basic_string@DU?$char_traits@D@std@@V?$allocator@D@2@@0@PEAV10@@Z ; std::_Unchecked<std::basic_string<char,std::char_traits<char>,std::allocator<char> > * __ptr64>
PUBLIC	??$construct@PEADAEAPEAD@?$allocator@D@std@@QEAAXPEAPEADAEAPEAD@Z ; std::allocator<char>::construct<char * __ptr64,char * __ptr64 & __ptr64>
PUBLIC	??$destroy@PEAD@?$allocator@D@std@@QEAAXPEAPEAD@Z ; std::allocator<char>::destroy<char * __ptr64>
PUBLIC	??$_Rechecked@V?$_Vector_val@U?$_Simple_types@V?$basic_string@DU?$char_traits@D@std@@V?$allocator@D@2@@std@@@std@@@std@@@std@@YAAEAV?$_Vector_iterator@V?$_Vector_val@U?$_Simple_types@V?$basic_string@DU?$char_traits@D@std@@V?$allocator@D@2@@std@@@std@@@std@@@0@AEAV10@PEAV?$basic_string@DU?$char_traits@D@std@@V?$allocator@D@2@@0@@Z ; std::_Rechecked<std::_Vector_val<std::_Simple_types<std::basic_string<char,std::char_traits<char>,std::allocator<char> > > > >
PUBLIC	??$_Rotate_unchecked@PEAV?$basic_string@DU?$char_traits@D@std@@V?$allocator@D@2@@std@@@std@@YAPEAV?$basic_string@DU?$char_traits@D@std@@V?$allocator@D@2@@0@PEAV10@00@Z ; std::_Rotate_unchecked<std::basic_string<char,std::char_traits<char>,std::allocator<char> > * __ptr64>
PUBLIC	??$_Unchecked@V?$_Vector_val@U?$_Simple_types@V?$basic_string@DU?$char_traits@D@std@@V?$allocator@D@2@@std@@@std@@@std@@@std@@YAPEAV?$basic_string@DU?$char_traits@D@std@@V?$allocator@D@2@@0@V?$_Vector_iterator@V?$_Vector_val@U?$_Simple_types@V?$basic_string@DU?$char_traits@D@std@@V?$allocator@D@2@@std@@@std@@@std@@@0@@Z ; std::_Unchecked<std::_Vector_val<std::_Simple_types<std::basic_string<char,std::char_traits<char>,std::allocator<char> > > > >
PUBLIC	??$construct@V?$basic_string@DU?$char_traits@D@std@@V?$allocator@D@2@@std@@V12@@?$_Wrap_alloc@V?$allocator@V?$basic_string@DU?$char_traits@D@std@@V?$allocator@D@2@@std@@@std@@@std@@QEAAXPEAV?$basic_string@DU?$char_traits@D@std@@V?$allocator@D@2@@1@$$QEAV21@@Z ; std::_Wrap_alloc<std::allocator<std::basic_string<char,std::char_traits<char>,std::allocator<char> > > >::construct<std::basic_string<char,std::char_traits<char>,std::allocator<char> >,std::basic_string<char,std::char_traits<char>,std::allocator<char> > >
PUBLIC	??$_Ucopy@PEBV?$basic_string@DU?$char_traits@D@std@@V?$allocator@D@2@@std@@@?$vector@V?$basic_string@DU?$char_traits@D@std@@V?$allocator@D@2@@std@@V?$allocator@V?$basic_string@DU?$char_traits@D@std@@V?$allocator@D@2@@std@@@2@@std@@IEAAPEAV?$basic_string@DU?$char_traits@D@std@@V?$allocator@D@2@@1@PEBV21@0PEAV21@@Z ; std::vector<std::basic_string<char,std::char_traits<char>,std::allocator<char> >,std::allocator<std::basic_string<char,std::char_traits<char>,std::allocator<char> > > >::_Ucopy<std::basic_string<char,std::char_traits<char>,std::allocator<char> > const * __ptr64>
PUBLIC	??$distance@PEBV?$basic_string@DU?$char_traits@D@std@@V?$allocator@D@2@@std@@@std@@YA_JPEBV?$basic_string@DU?$char_traits@D@std@@V?$allocator@D@2@@0@0@Z ; std::distance<std::basic_string<char,std::char_traits<char>,std::allocator<char> > const * __ptr64>
PUBLIC	??$?0AEBV?$allocator@V?$basic_string@DU?$char_traits@D@std@@V?$allocator@D@2@@std@@@std@@@?$_Wrap_alloc@V?$allocator@V?$basic_string@DU?$char_traits@D@std@@V?$allocator@D@2@@std@@@std@@@std@@QEAA@AEBV?$allocator@V?$basic_string@DU?$char_traits@D@std@@V?$allocator@D@2@@std@@@1@@Z ; std::_Wrap_alloc<std::allocator<std::basic_string<char,std::char_traits<char>,std::allocator<char> > > >::_Wrap_alloc<std::allocator<std::basic_string<char,std::char_traits<char>,std::allocator<char> > > ><std::allocator<std::basic_string<char,std::char_traits<char>,std::allocator<char> > > const & __ptr64>
PUBLIC	??$construct@V?$basic_string@DU?$char_traits@D@std@@V?$allocator@D@2@@std@@$$V@?$_Wrap_alloc@V?$allocator@V?$basic_string@DU?$char_traits@D@std@@V?$allocator@D@2@@std@@@std@@@std@@QEAAXPEAV?$basic_string@DU?$char_traits@D@std@@V?$allocator@D@2@@1@@Z ; std::_Wrap_alloc<std::allocator<std::basic_string<char,std::char_traits<char>,std::allocator<char> > > >::construct<std::basic_string<char,std::char_traits<char>,std::allocator<char> > >
PUBLIC	??$_Ucopy@PEBQEAVPerson@@@?$vector@PEAVPerson@@V?$allocator@PEAVPerson@@@std@@@std@@IEAAPEAPEAVPerson@@PEBQEAV2@0PEAPEAV2@@Z ; std::vector<Person * __ptr64,std::allocator<Person * __ptr64> >::_Ucopy<Person * __ptr64 const * __ptr64>
PUBLIC	??$distance@PEBQEAVPerson@@@std@@YA_JPEBQEAVPerson@@0@Z ; std::distance<Person * __ptr64 const * __ptr64>
PUBLIC	??$?0AEBV?$allocator@PEAVPerson@@@std@@@?$_Wrap_alloc@V?$allocator@PEAVPerson@@@std@@@std@@QEAA@AEBV?$allocator@PEAVPerson@@@1@@Z ; std::_Wrap_alloc<std::allocator<Person * __ptr64> >::_Wrap_alloc<std::allocator<Person * __ptr64> ><std::allocator<Person * __ptr64> const & __ptr64>
PUBLIC	??$_Rechecked@V?$_Vector_val@U?$_Simple_types@PEAVAddress@@@std@@@std@@@std@@YAAEAV?$_Vector_iterator@V?$_Vector_val@U?$_Simple_types@PEAVAddress@@@std@@@std@@@0@AEAV10@PEAPEAVAddress@@@Z ; std::_Rechecked<std::_Vector_val<std::_Simple_types<Address * __ptr64> > >
PUBLIC	??$_Rotate_unchecked@PEAPEAVAddress@@@std@@YAPEAPEAVAddress@@PEAPEAV1@00@Z ; std::_Rotate_unchecked<Address * __ptr64 * __ptr64>
PUBLIC	??$_Unchecked@V?$_Vector_val@U?$_Simple_types@PEAVAddress@@@std@@@std@@@std@@YAPEAPEAVAddress@@V?$_Vector_iterator@V?$_Vector_val@U?$_Simple_types@PEAVAddress@@@std@@@std@@@0@@Z ; std::_Unchecked<std::_Vector_val<std::_Simple_types<Address * __ptr64> > >
PUBLIC	??$construct@PEAVAddress@@PEAV1@@?$_Wrap_alloc@V?$allocator@PEAVAddress@@@std@@@std@@QEAAXPEAPEAVAddress@@$$QEAPEAV2@@Z ; std::_Wrap_alloc<std::allocator<Address * __ptr64> >::construct<Address * __ptr64,Address * __ptr64>
PUBLIC	??$_Unfancy@PEAVAddress@@@std@@YAPEAPEAVAddress@@PEAPEAV1@@Z ; std::_Unfancy<Address * __ptr64>
PUBLIC	??$_Ucopy@PEBQEAVAddress@@@?$vector@PEAVAddress@@V?$allocator@PEAVAddress@@@std@@@std@@IEAAPEAPEAVAddress@@PEBQEAV2@0PEAPEAV2@@Z ; std::vector<Address * __ptr64,std::allocator<Address * __ptr64> >::_Ucopy<Address * __ptr64 const * __ptr64>
PUBLIC	??$distance@PEBQEAVAddress@@@std@@YA_JPEBQEAVAddress@@0@Z ; std::distance<Address * __ptr64 const * __ptr64>
PUBLIC	??$?0AEBV?$allocator@PEAVAddress@@@std@@@?$_Wrap_alloc@V?$allocator@PEAVAddress@@@std@@@std@@QEAA@AEBV?$allocator@PEAVAddress@@@1@@Z ; std::_Wrap_alloc<std::allocator<Address * __ptr64> >::_Wrap_alloc<std::allocator<Address * __ptr64> ><std::allocator<Address * __ptr64> const & __ptr64>
PUBLIC	??$_Ucopy@PEBH@?$vector@HV?$allocator@H@std@@@std@@IEAAPEAHPEBH0PEAH@Z ; std::vector<int,std::allocator<int> >::_Ucopy<int const * __ptr64>
PUBLIC	??$distance@PEBH@std@@YA_JPEBH0@Z		; std::distance<int const * __ptr64>
PUBLIC	??$?0AEBV?$allocator@H@std@@@?$_Wrap_alloc@V?$allocator@H@std@@@std@@QEAA@AEBV?$allocator@H@1@@Z ; std::_Wrap_alloc<std::allocator<int> >::_Wrap_alloc<std::allocator<int> ><std::allocator<int> const & __ptr64>
PUBLIC	??$_Construct@DU?$char_traits@D@std@@V?$allocator@D@2@@?$bitset@$0BA@@std@@QEAAXAEBV?$basic_string@DU?$char_traits@D@std@@V?$allocator@D@2@@1@_K1DD@Z ; std::bitset<16>::_Construct<char,std::char_traits<char>,std::allocator<char> >
PUBLIC	??$_Unchecked@PEAD@std@@YAPEADPEAD@Z		; std::_Unchecked<char * __ptr64>
PUBLIC	??$?0AEBV?$allocator@D@std@@X@?$_String_alloc@U?$_String_base_types@DV?$allocator@D@std@@@std@@@std@@QEAA@AEBV?$allocator@D@1@@Z ; std::_String_alloc<std::_String_base_types<char,std::allocator<char> > >::_String_alloc<std::_String_base_types<char,std::allocator<char> > ><std::allocator<char> const & __ptr64,void>
PUBLIC	??$move@AEAPEAD@std@@YA$$QEAPEADAEAPEAD@Z	; std::move<char * __ptr64 & __ptr64>
PUBLIC	??$?8DD@std@@YA_NAEBV?$allocator@D@0@0@Z	; std::operator==<char,char>
PUBLIC	??$_Unfancy@V?$basic_string@DU?$char_traits@D@std@@V?$allocator@D@2@@std@@@std@@YAPEAV?$basic_string@DU?$char_traits@D@std@@V?$allocator@D@2@@0@PEAV10@@Z ; std::_Unfancy<std::basic_string<char,std::char_traits<char>,std::allocator<char> > >
PUBLIC	??$swap@DX@std@@YAXAEAD0@Z			; std::swap<char,void>
PUBLIC	?max_size@?$allocator@PEAVPerson@@@std@@QEBA_KXZ ; std::allocator<Person * __ptr64>::max_size
PUBLIC	?max_size@?$allocator@PEAVAddress@@@std@@QEBA_KXZ ; std::allocator<Address * __ptr64>::max_size
PUBLIC	?max_size@?$allocator@H@std@@QEBA_KXZ		; std::allocator<int>::max_size
PUBLIC	?max_size@?$allocator_traits@V?$allocator@PEAVPerson@@@std@@@std@@SA_KAEBV?$allocator@PEAVPerson@@@2@@Z ; std::allocator_traits<std::allocator<Person * __ptr64> >::max_size
PUBLIC	?_Get_first@?$_Compressed_pair@U?$_Wrap_alloc@V?$allocator@PEAVPerson@@@std@@@std@@V?$_Vector_val@U?$_Simple_types@PEAVPerson@@@std@@@2@$00@std@@QEBAAEBU?$_Wrap_alloc@V?$allocator@PEAVPerson@@@std@@@2@XZ ; std::_Compressed_pair<std::_Wrap_alloc<std::allocator<Person * __ptr64> >,std::_Vector_val<std::_Simple_types<Person * __ptr64> >,1>::_Get_first
PUBLIC	?max_size@?$allocator_traits@V?$allocator@PEAVAddress@@@std@@@std@@SA_KAEBV?$allocator@PEAVAddress@@@2@@Z ; std::allocator_traits<std::allocator<Address * __ptr64> >::max_size
PUBLIC	?_Get_first@?$_Compressed_pair@U?$_Wrap_alloc@V?$allocator@PEAVAddress@@@std@@@std@@V?$_Vector_val@U?$_Simple_types@PEAVAddress@@@std@@@2@$00@std@@QEBAAEBU?$_Wrap_alloc@V?$allocator@PEAVAddress@@@std@@@2@XZ ; std::_Compressed_pair<std::_Wrap_alloc<std::allocator<Address * __ptr64> >,std::_Vector_val<std::_Simple_types<Address * __ptr64> >,1>::_Get_first
PUBLIC	?max_size@?$allocator_traits@V?$allocator@H@std@@@std@@SA_KAEBV?$allocator@H@2@@Z ; std::allocator_traits<std::allocator<int> >::max_size
PUBLIC	?_Get_first@?$_Compressed_pair@U?$_Wrap_alloc@V?$allocator@H@std@@@std@@V?$_Vector_val@U?$_Simple_types@H@std@@@2@$00@std@@QEBAAEBU?$_Wrap_alloc@V?$allocator@H@std@@@2@XZ ; std::_Compressed_pair<std::_Wrap_alloc<std::allocator<int> >,std::_Vector_val<std::_Simple_types<int> >,1>::_Get_first
PUBLIC	?allocate@?$allocator@PEAVPerson@@@std@@QEAAPEAPEAVPerson@@_K@Z ; std::allocator<Person * __ptr64>::allocate
PUBLIC	?allocate@?$allocator@PEAVAddress@@@std@@QEAAPEAPEAVAddress@@_K@Z ; std::allocator<Address * __ptr64>::allocate
PUBLIC	?capacity@?$vector@PEAVAddress@@V?$allocator@PEAVAddress@@@std@@@std@@QEBA_KXZ ; std::vector<Address * __ptr64,std::allocator<Address * __ptr64> >::capacity
PUBLIC	?_Getal@?$_Vector_alloc@U?$_Vec_base_types@PEAVPerson@@V?$allocator@PEAVPerson@@@std@@@std@@@std@@QEBAAEBU?$_Wrap_alloc@V?$allocator@PEAVPerson@@@std@@@2@XZ ; std::_Vector_alloc<std::_Vec_base_types<Person * __ptr64,std::allocator<Person * __ptr64> > >::_Getal
PUBLIC	?max_size@?$_Wrap_alloc@V?$allocator@PEAVPerson@@@std@@@std@@QEBA_KU_Nil@2@@Z ; std::_Wrap_alloc<std::allocator<Person * __ptr64> >::max_size
PUBLIC	?_Getal@?$_Vector_alloc@U?$_Vec_base_types@PEAVAddress@@V?$allocator@PEAVAddress@@@std@@@std@@@std@@QEBAAEBU?$_Wrap_alloc@V?$allocator@PEAVAddress@@@std@@@2@XZ ; std::_Vector_alloc<std::_Vec_base_types<Address * __ptr64,std::allocator<Address * __ptr64> > >::_Getal
PUBLIC	?_Myend@?$_Vector_alloc@U?$_Vec_base_types@PEAVAddress@@V?$allocator@PEAVAddress@@@std@@@std@@@std@@QEBAAEBQEAPEAVAddress@@XZ ; std::_Vector_alloc<std::_Vec_base_types<Address * __ptr64,std::allocator<Address * __ptr64> > >::_Myend
PUBLIC	?max_size@?$_Wrap_alloc@V?$allocator@PEAVAddress@@@std@@@std@@QEBA_KU_Nil@2@@Z ; std::_Wrap_alloc<std::allocator<Address * __ptr64> >::max_size
PUBLIC	?allocate@?$allocator@H@std@@QEAAPEAH_K@Z	; std::allocator<int>::allocate
PUBLIC	?_Getal@?$_Vector_alloc@U?$_Vec_base_types@HV?$allocator@H@std@@@std@@@std@@QEBAAEBU?$_Wrap_alloc@V?$allocator@H@std@@@2@XZ ; std::_Vector_alloc<std::_Vec_base_types<int,std::allocator<int> > >::_Getal
PUBLIC	?max_size@?$_Wrap_alloc@V?$allocator@H@std@@@std@@QEBA_KU_Nil@2@@Z ; std::_Wrap_alloc<std::allocator<int> >::max_size
PUBLIC	?max_size@?$vector@PEAVPerson@@V?$allocator@PEAVPerson@@@std@@@std@@QEBA_KXZ ; std::vector<Person * __ptr64,std::allocator<Person * __ptr64> >::max_size
PUBLIC	?_Xlen@?$vector@PEAVPerson@@V?$allocator@PEAVPerson@@@std@@@std@@IEBAXXZ ; std::vector<Person * __ptr64,std::allocator<Person * __ptr64> >::_Xlen
PUBLIC	?_Unused_capacity@?$vector@PEAVAddress@@V?$allocator@PEAVAddress@@@std@@@std@@QEBA_KXZ ; std::vector<Address * __ptr64,std::allocator<Address * __ptr64> >::_Unused_capacity
PUBLIC	?size@?$vector@PEAVAddress@@V?$allocator@PEAVAddress@@@std@@@std@@QEBA_KXZ ; std::vector<Address * __ptr64,std::allocator<Address * __ptr64> >::size
PUBLIC	?max_size@?$vector@PEAVAddress@@V?$allocator@PEAVAddress@@@std@@@std@@QEBA_KXZ ; std::vector<Address * __ptr64,std::allocator<Address * __ptr64> >::max_size
PUBLIC	?_Grow_to@?$vector@PEAVAddress@@V?$allocator@PEAVAddress@@@std@@@std@@IEBA_K_K@Z ; std::vector<Address * __ptr64,std::allocator<Address * __ptr64> >::_Grow_to
PUBLIC	?_Reallocate@?$vector@PEAVAddress@@V?$allocator@PEAVAddress@@@std@@@std@@IEAAX_K@Z ; std::vector<Address * __ptr64,std::allocator<Address * __ptr64> >::_Reallocate
PUBLIC	?_Xlen@?$vector@PEAVAddress@@V?$allocator@PEAVAddress@@@std@@@std@@IEBAXXZ ; std::vector<Address * __ptr64,std::allocator<Address * __ptr64> >::_Xlen
PUBLIC	?allocate@?$_Wrap_alloc@V?$allocator@PEAVPerson@@@std@@@std@@QEAAPEAPEAVPerson@@_K@Z ; std::_Wrap_alloc<std::allocator<Person * __ptr64> >::allocate
PUBLIC	?allocate@?$_Wrap_alloc@V?$allocator@PEAVAddress@@@std@@@std@@QEAAPEAPEAVAddress@@_K@Z ; std::_Wrap_alloc<std::allocator<Address * __ptr64> >::allocate
PUBLIC	?max_size@?$vector@HV?$allocator@H@std@@@std@@QEBA_KXZ ; std::vector<int,std::allocator<int> >::max_size
PUBLIC	?_Xlen@?$vector@HV?$allocator@H@std@@@std@@IEBAXXZ ; std::vector<int,std::allocator<int> >::_Xlen
PUBLIC	?allocate@?$_Wrap_alloc@V?$allocator@H@std@@@std@@QEAAPEAH_K@Z ; std::_Wrap_alloc<std::allocator<int> >::allocate
PUBLIC	?_Subscript@?$bitset@$0BA@@std@@QEBA_N_K@Z	; std::bitset<16>::_Subscript
PUBLIC	?_Xran@?$bitset@$0BA@@std@@AEBAXXZ		; std::bitset<16>::_Xran
PUBLIC	?_Construct@?$basic_string@DU?$char_traits@D@std@@V?$allocator@D@2@@std@@QEAAXPEAD0Urandom_access_iterator_tag@2@@Z ; std::basic_string<char,std::char_traits<char>,std::allocator<char> >::_Construct
PUBLIC	?reserve@?$basic_string@DU?$char_traits@D@std@@V?$allocator@D@2@@std@@QEAAX_K@Z ; std::basic_string<char,std::char_traits<char>,std::allocator<char> >::reserve
PUBLIC	??0?$_Wrap_alloc@V?$allocator@D@std@@@std@@QEAA@$$QEAU01@@Z ; std::_Wrap_alloc<std::allocator<char> >::_Wrap_alloc<std::allocator<char> >
PUBLIC	?_Buy@?$vector@V?$basic_string@DU?$char_traits@D@std@@V?$allocator@D@2@@std@@V?$allocator@V?$basic_string@DU?$char_traits@D@std@@V?$allocator@D@2@@std@@@2@@std@@IEAA_N_K@Z ; std::vector<std::basic_string<char,std::char_traits<char>,std::allocator<char> >,std::allocator<std::basic_string<char,std::char_traits<char>,std::allocator<char> > > >::_Buy
PUBLIC	?_Orphan_range@?$vector@V?$basic_string@DU?$char_traits@D@std@@V?$allocator@D@2@@std@@V?$allocator@V?$basic_string@DU?$char_traits@D@std@@V?$allocator@D@2@@std@@@2@@std@@IEBAXPEAV?$basic_string@DU?$char_traits@D@std@@V?$allocator@D@2@@2@0@Z ; std::vector<std::basic_string<char,std::char_traits<char>,std::allocator<char> >,std::allocator<std::basic_string<char,std::char_traits<char>,std::allocator<char> > > >::_Orphan_range
PUBLIC	??0?$_Vector_val@U?$_Simple_types@V?$basic_string@DU?$char_traits@D@std@@V?$allocator@D@2@@std@@@std@@@std@@QEAA@XZ ; std::_Vector_val<std::_Simple_types<std::basic_string<char,std::char_traits<char>,std::allocator<char> > > >::_Vector_val<std::_Simple_types<std::basic_string<char,std::char_traits<char>,std::allocator<char> > > >
PUBLIC	?_Buy@?$vector@PEAVPerson@@V?$allocator@PEAVPerson@@@std@@@std@@IEAA_N_K@Z ; std::vector<Person * __ptr64,std::allocator<Person * __ptr64> >::_Buy
PUBLIC	?_Buy@?$vector@PEAVAddress@@V?$allocator@PEAVAddress@@@std@@@std@@IEAA_N_K@Z ; std::vector<Address * __ptr64,std::allocator<Address * __ptr64> >::_Buy
PUBLIC	?_Reserve@?$vector@PEAVAddress@@V?$allocator@PEAVAddress@@@std@@@std@@IEAAX_K@Z ; std::vector<Address * __ptr64,std::allocator<Address * __ptr64> >::_Reserve
PUBLIC	?_Orphan_range@?$vector@PEAVAddress@@V?$allocator@PEAVAddress@@@std@@@std@@IEBAXPEAPEAVAddress@@0@Z ; std::vector<Address * __ptr64,std::allocator<Address * __ptr64> >::_Orphan_range
PUBLIC	??0?$_Vector_val@U?$_Simple_types@PEAVPerson@@@std@@@std@@QEAA@XZ ; std::_Vector_val<std::_Simple_types<Person * __ptr64> >::_Vector_val<std::_Simple_types<Person * __ptr64> >
PUBLIC	??0?$_Vector_val@U?$_Simple_types@PEAVAddress@@@std@@@std@@QEAA@XZ ; std::_Vector_val<std::_Simple_types<Address * __ptr64> >::_Vector_val<std::_Simple_types<Address * __ptr64> >
PUBLIC	?_Buy@?$vector@HV?$allocator@H@std@@@std@@IEAA_N_K@Z ; std::vector<int,std::allocator<int> >::_Buy
PUBLIC	??0?$_Vector_val@U?$_Simple_types@H@std@@@std@@QEAA@XZ ; std::_Vector_val<std::_Simple_types<int> >::_Vector_val<std::_Simple_types<int> >
PUBLIC	?test@?$bitset@$0BA@@std@@QEBA_N_K@Z		; std::bitset<16>::test
PUBLIC	??$?8V?$allocator@D@std@@V01@@std@@YA_NAEBU?$_Wrap_alloc@V?$allocator@D@std@@@0@0@Z ; std::operator==<std::allocator<char>,std::allocator<char> >
PUBLIC	??$iter_swap@PEADPEAD@std@@YAXPEAD0@Z		; std::iter_swap<char * __ptr64,char * __ptr64>
PUBLIC	??$_Destroy_range1@V?$allocator@V?$basic_string@DU?$char_traits@D@std@@V?$allocator@D@2@@std@@@std@@PEAV?$basic_string@DU?$char_traits@D@std@@V?$allocator@D@2@@2@@std@@YAXPEAV?$basic_string@DU?$char_traits@D@std@@V?$allocator@D@2@@0@0AEAU?$_Wrap_alloc@V?$allocator@V?$basic_string@DU?$char_traits@D@std@@V?$allocator@D@2@@std@@@std@@@0@U?$integral_constant@_N$0A@@0@@Z ; std::_Destroy_range1<std::allocator<std::basic_string<char,std::char_traits<char>,std::allocator<char> > >,std::basic_string<char,std::char_traits<char>,std::allocator<char> > * __ptr64>
PUBLIC	??$_Uninitialized_move@PEAV?$basic_string@DU?$char_traits@D@std@@V?$allocator@D@2@@std@@PEAV12@V?$allocator@V?$basic_string@DU?$char_traits@D@std@@V?$allocator@D@2@@std@@@2@@std@@YAPEAV?$basic_string@DU?$char_traits@D@std@@V?$allocator@D@2@@0@PEAV10@00AEAU?$_Wrap_alloc@V?$allocator@V?$basic_string@DU?$char_traits@D@std@@V?$allocator@D@2@@std@@@std@@@0@@Z ; std::_Uninitialized_move<std::basic_string<char,std::char_traits<char>,std::allocator<char> > * __ptr64,std::basic_string<char,std::char_traits<char>,std::allocator<char> > * __ptr64,std::allocator<std::basic_string<char,std::char_traits<char>,std::allocator<char> > > >
PUBLIC	??$_Destroy_range1@V?$allocator@PEAVPerson@@@std@@PEAPEAVPerson@@@std@@YAXPEAPEAVPerson@@0AEAU?$_Wrap_alloc@V?$allocator@PEAVPerson@@@std@@@0@U?$integral_constant@_N$00@0@@Z ; std::_Destroy_range1<std::allocator<Person * __ptr64>,Person * __ptr64 * __ptr64>
PUBLIC	??$_Destroy_range1@V?$allocator@PEAVAddress@@@std@@PEAPEAVAddress@@@std@@YAXPEAPEAVAddress@@0AEAU?$_Wrap_alloc@V?$allocator@PEAVAddress@@@std@@@0@U?$integral_constant@_N$00@0@@Z ; std::_Destroy_range1<std::allocator<Address * __ptr64>,Address * __ptr64 * __ptr64>
PUBLIC	??$_Destroy_range1@V?$allocator@H@std@@PEAH@std@@YAXPEAH0AEAU?$_Wrap_alloc@V?$allocator@H@std@@@0@U?$integral_constant@_N$00@0@@Z ; std::_Destroy_range1<std::allocator<int>,int * __ptr64>
PUBLIC	??$construct@PEADAEAPEAD@?$allocator_traits@V?$allocator@D@std@@@std@@SAXAEAV?$allocator@D@1@PEAPEADAEAPEAD@Z ; std::allocator_traits<std::allocator<char> >::construct<char * __ptr64,char * __ptr64 & __ptr64>
PUBLIC	??$forward@AEAPEAD@std@@YAAEAPEADAEAPEAD@Z	; std::forward<char * __ptr64 & __ptr64>
PUBLIC	??$move@AEA_K@std@@YA$$QEA_KAEA_K@Z		; std::move<unsigned __int64 & __ptr64>
PUBLIC	??$_Pocs@U?$_Wrap_alloc@V?$allocator@D@std@@@std@@@std@@YAXAEAU?$_Wrap_alloc@V?$allocator@D@std@@@0@0U?$integral_constant@_N$0A@@0@@Z ; std::_Pocs<std::_Wrap_alloc<std::allocator<char> > >
PUBLIC	??$destroy@PEAD@?$allocator_traits@V?$allocator@D@std@@@std@@SAXAEAV?$allocator@D@1@PEAPEAD@Z ; std::allocator_traits<std::allocator<char> >::destroy<char * __ptr64>
PUBLIC	??$forward@V?$allocator@D@std@@@std@@YA$$QEAV?$allocator@D@0@AEAV10@@Z ; std::forward<std::allocator<char> >
PUBLIC	??$?0U?$_Wrap_alloc@V?$allocator@D@std@@@std@@$$V@?$_Compressed_pair@U?$_Wrap_alloc@V?$allocator@D@std@@@std@@V?$_String_val@U?$_Simple_types@D@std@@@2@$00@std@@QEAA@U_One_then_variadic_args_t@1@$$QEAU?$_Wrap_alloc@V?$allocator@D@std@@@1@@Z ; std::_Compressed_pair<std::_Wrap_alloc<std::allocator<char> >,std::_String_val<std::_Simple_types<char> >,1>::_Compressed_pair<std::_Wrap_alloc<std::allocator<char> >,std::_String_val<std::_Simple_types<char> >,1><std::_Wrap_alloc<std::allocator<char> > >
PUBLIC	??$forward@U?$_Wrap_alloc@V?$allocator@D@std@@@std@@@std@@YA$$QEAU?$_Wrap_alloc@V?$allocator@D@std@@@0@AEAU10@@Z ; std::forward<std::_Wrap_alloc<std::allocator<char> > >
PUBLIC	??$rotate@V?$_Vector_iterator@V?$_Vector_val@U?$_Simple_types@V?$basic_string@DU?$char_traits@D@std@@V?$allocator@D@2@@std@@@std@@@std@@@std@@@std@@YA?AV?$_Vector_iterator@V?$_Vector_val@U?$_Simple_types@V?$basic_string@DU?$char_traits@D@std@@V?$allocator@D@2@@std@@@std@@@std@@@0@V10@00@Z ; std::rotate<std::_Vector_iterator<std::_Vector_val<std::_Simple_types<std::basic_string<char,std::char_traits<char>,std::allocator<char> > > > > >
PUBLIC	??$emplace_back@V?$basic_string@DU?$char_traits@D@std@@V?$allocator@D@2@@std@@@?$vector@V?$basic_string@DU?$char_traits@D@std@@V?$allocator@D@2@@std@@V?$allocator@V?$basic_string@DU?$char_traits@D@std@@V?$allocator@D@2@@std@@@2@@std@@QEAAX$$QEAV?$basic_string@DU?$char_traits@D@std@@V?$allocator@D@2@@1@@Z ; std::vector<std::basic_string<char,std::char_traits<char>,std::allocator<char> >,std::allocator<std::basic_string<char,std::char_traits<char>,std::allocator<char> > > >::emplace_back<std::basic_string<char,std::char_traits<char>,std::allocator<char> > >
PUBLIC	??$_Construct@PEBV?$basic_string@DU?$char_traits@D@std@@V?$allocator@D@2@@std@@@?$vector@V?$basic_string@DU?$char_traits@D@std@@V?$allocator@D@2@@std@@V?$allocator@V?$basic_string@DU?$char_traits@D@std@@V?$allocator@D@2@@std@@@2@@std@@QEAAXPEBV?$basic_string@DU?$char_traits@D@std@@V?$allocator@D@2@@1@0Uforward_iterator_tag@1@@Z ; std::vector<std::basic_string<char,std::char_traits<char>,std::allocator<char> >,std::allocator<std::basic_string<char,std::char_traits<char>,std::allocator<char> > > >::_Construct<std::basic_string<char,std::char_traits<char>,std::allocator<char> > const * __ptr64>
PUBLIC	??$?0AEBV?$allocator@V?$basic_string@DU?$char_traits@D@std@@V?$allocator@D@2@@std@@@std@@$$V@?$_Compressed_pair@U?$_Wrap_alloc@V?$allocator@V?$basic_string@DU?$char_traits@D@std@@V?$allocator@D@2@@std@@@std@@@std@@V?$_Vector_val@U?$_Simple_types@V?$basic_string@DU?$char_traits@D@std@@V?$allocator@D@2@@std@@@std@@@2@$00@std@@QEAA@U_One_then_variadic_args_t@1@AEBV?$allocator@V?$basic_string@DU?$char_traits@D@std@@V?$allocator@D@2@@std@@@1@@Z ; std::_Compressed_pair<std::_Wrap_alloc<std::allocator<std::basic_string<char,std::char_traits<char>,std::allocator<char> > > >,std::_Vector_val<std::_Simple_types<std::basic_string<char,std::char_traits<char>,std::allocator<char> > > >,1>::_Compressed_pair<std::_Wrap_alloc<std::allocator<std::basic_string<char,std::char_traits<char>,std::allocator<char> > > >,std::_Vector_val<std::_Simple_types<std::basic_string<char,std::char_traits<char>,std::allocator<char> > > >,1><std::allocator<std::basic_string<char,std::char_traits<char>,std::allocator<char> > > const & __ptr64>
PUBLIC	??$forward@AEBV?$allocator@V?$basic_string@DU?$char_traits@D@std@@V?$allocator@D@2@@std@@@std@@@std@@YAAEBV?$allocator@V?$basic_string@DU?$char_traits@D@std@@V?$allocator@D@2@@std@@@0@AEBV10@@Z ; std::forward<std::allocator<std::basic_string<char,std::char_traits<char>,std::allocator<char> > > const & __ptr64>
PUBLIC	??$_Uninitialized_default_fill_n1@PEAV?$basic_string@DU?$char_traits@D@std@@V?$allocator@D@2@@std@@_KV?$allocator@V?$basic_string@DU?$char_traits@D@std@@V?$allocator@D@2@@std@@@2@@std@@YAXPEAV?$basic_string@DU?$char_traits@D@std@@V?$allocator@D@2@@0@_KAEAU?$_Wrap_alloc@V?$allocator@V?$basic_string@DU?$char_traits@D@std@@V?$allocator@D@2@@std@@@std@@@0@U?$integral_constant@_N$0A@@0@@Z ; std::_Uninitialized_default_fill_n1<std::basic_string<char,std::char_traits<char>,std::allocator<char> > * __ptr64,unsigned __int64,std::allocator<std::basic_string<char,std::char_traits<char>,std::allocator<char> > > >
PUBLIC	??$_Construct@PEBQEAVPerson@@@?$vector@PEAVPerson@@V?$allocator@PEAVPerson@@@std@@@std@@QEAAXPEBQEAVPerson@@0Uforward_iterator_tag@1@@Z ; std::vector<Person * __ptr64,std::allocator<Person * __ptr64> >::_Construct<Person * __ptr64 const * __ptr64>
PUBLIC	??$?0AEBV?$allocator@PEAVPerson@@@std@@$$V@?$_Compressed_pair@U?$_Wrap_alloc@V?$allocator@PEAVPerson@@@std@@@std@@V?$_Vector_val@U?$_Simple_types@PEAVPerson@@@std@@@2@$00@std@@QEAA@U_One_then_variadic_args_t@1@AEBV?$allocator@PEAVPerson@@@1@@Z ; std::_Compressed_pair<std::_Wrap_alloc<std::allocator<Person * __ptr64> >,std::_Vector_val<std::_Simple_types<Person * __ptr64> >,1>::_Compressed_pair<std::_Wrap_alloc<std::allocator<Person * __ptr64> >,std::_Vector_val<std::_Simple_types<Person * __ptr64> >,1><std::allocator<Person * __ptr64> const & __ptr64>
PUBLIC	??$forward@AEBV?$allocator@PEAVPerson@@@std@@@std@@YAAEBV?$allocator@PEAVPerson@@@0@AEBV10@@Z ; std::forward<std::allocator<Person * __ptr64> const & __ptr64>
PUBLIC	??$rotate@V?$_Vector_iterator@V?$_Vector_val@U?$_Simple_types@PEAVAddress@@@std@@@std@@@std@@@std@@YA?AV?$_Vector_iterator@V?$_Vector_val@U?$_Simple_types@PEAVAddress@@@std@@@std@@@0@V10@00@Z ; std::rotate<std::_Vector_iterator<std::_Vector_val<std::_Simple_types<Address * __ptr64> > > >
PUBLIC	??$emplace_back@PEAVAddress@@@?$vector@PEAVAddress@@V?$allocator@PEAVAddress@@@std@@@std@@QEAAX$$QEAPEAVAddress@@@Z ; std::vector<Address * __ptr64,std::allocator<Address * __ptr64> >::emplace_back<Address * __ptr64>
PUBLIC	??$forward@PEAVAddress@@@std@@YA$$QEAPEAVAddress@@AEAPEAV1@@Z ; std::forward<Address * __ptr64>
PUBLIC	??$_Construct@PEBQEAVAddress@@@?$vector@PEAVAddress@@V?$allocator@PEAVAddress@@@std@@@std@@QEAAXPEBQEAVAddress@@0Uforward_iterator_tag@1@@Z ; std::vector<Address * __ptr64,std::allocator<Address * __ptr64> >::_Construct<Address * __ptr64 const * __ptr64>
PUBLIC	??$?0AEBV?$allocator@PEAVAddress@@@std@@$$V@?$_Compressed_pair@U?$_Wrap_alloc@V?$allocator@PEAVAddress@@@std@@@std@@V?$_Vector_val@U?$_Simple_types@PEAVAddress@@@std@@@2@$00@std@@QEAA@U_One_then_variadic_args_t@1@AEBV?$allocator@PEAVAddress@@@1@@Z ; std::_Compressed_pair<std::_Wrap_alloc<std::allocator<Address * __ptr64> >,std::_Vector_val<std::_Simple_types<Address * __ptr64> >,1>::_Compressed_pair<std::_Wrap_alloc<std::allocator<Address * __ptr64> >,std::_Vector_val<std::_Simple_types<Address * __ptr64> >,1><std::allocator<Address * __ptr64> const & __ptr64>
PUBLIC	??$forward@AEBV?$allocator@PEAVAddress@@@std@@@std@@YAAEBV?$allocator@PEAVAddress@@@0@AEBV10@@Z ; std::forward<std::allocator<Address * __ptr64> const & __ptr64>
PUBLIC	??$_Construct@PEBH@?$vector@HV?$allocator@H@std@@@std@@QEAAXPEBH0Uforward_iterator_tag@1@@Z ; std::vector<int,std::allocator<int> >::_Construct<int const * __ptr64>
PUBLIC	??$?0AEBV?$allocator@H@std@@$$V@?$_Compressed_pair@U?$_Wrap_alloc@V?$allocator@H@std@@@std@@V?$_Vector_val@U?$_Simple_types@H@std@@@2@$00@std@@QEAA@U_One_then_variadic_args_t@1@AEBV?$allocator@H@1@@Z ; std::_Compressed_pair<std::_Wrap_alloc<std::allocator<int> >,std::_Vector_val<std::_Simple_types<int> >,1>::_Compressed_pair<std::_Wrap_alloc<std::allocator<int> >,std::_Vector_val<std::_Simple_types<int> >,1><std::allocator<int> const & __ptr64>
PUBLIC	??$forward@AEBV?$allocator@H@std@@@std@@YAAEBV?$allocator@H@0@AEBV10@@Z ; std::forward<std::allocator<int> const & __ptr64>
PUBLIC	??$getline@DU?$char_traits@D@std@@V?$allocator@D@2@@std@@YAAEAV?$basic_istream@DU?$char_traits@D@std@@@0@$$QEAV10@AEAV?$basic_string@DU?$char_traits@D@std@@V?$allocator@D@2@@0@D@Z ; std::getline<char,std::char_traits<char>,std::allocator<char> >
PUBLIC	??$to_string@DU?$char_traits@D@std@@V?$allocator@D@2@@?$bitset@$0BA@@std@@QEBA?AV?$basic_string@DU?$char_traits@D@std@@V?$allocator@D@2@@1@DD@Z ; std::bitset<16>::to_string<char,std::char_traits<char>,std::allocator<char> >
PUBLIC	??$?0DU?$char_traits@D@std@@V?$allocator@D@1@@?$bitset@$0BA@@std@@QEAA@AEBV?$basic_string@DU?$char_traits@D@std@@V?$allocator@D@2@@1@_K1DD@Z ; std::bitset<16>::bitset<16><char,std::char_traits<char>,std::allocator<char> >
PUBLIC	??$move@AEAV?$basic_istream@DU?$char_traits@D@std@@@std@@@std@@YA$$QEAV?$basic_istream@DU?$char_traits@D@std@@@0@AEAV10@@Z ; std::move<std::basic_istream<char,std::char_traits<char> > & __ptr64>
PUBLIC	??$?0PEADX@?$basic_string@DU?$char_traits@D@std@@V?$allocator@D@2@@std@@QEAA@PEAD0AEBV?$allocator@D@1@@Z ; std::basic_string<char,std::char_traits<char>,std::allocator<char> >::basic_string<char,std::char_traits<char>,std::allocator<char> ><char * __ptr64,void>
PUBLIC	??$_UIntegral_to_buff@DI@std@@YAPEADPEADI@Z	; std::_UIntegral_to_buff<char,unsigned int>
PUBLIC	??$swap@PEADX@std@@YAXAEAPEAD0@Z		; std::swap<char * __ptr64,void>
PUBLIC	??$?5DU?$char_traits@D@std@@V?$allocator@D@1@@std@@YAAEAV?$basic_istream@DU?$char_traits@D@std@@@0@$$QEAV10@AEAV?$basic_string@DU?$char_traits@D@std@@V?$allocator@D@2@@0@@Z ; std::operator>><char,std::char_traits<char>,std::allocator<char> >
PUBLIC	??Y?$_Vector_const_iterator@V?$_Vector_val@U?$_Simple_types@PEAVAddress@@@std@@@std@@@std@@QEAAAEAV01@_J@Z ; std::_Vector_const_iterator<std::_Vector_val<std::_Simple_types<Address * __ptr64> > >::operator+=
PUBLIC	??0_Bxty@?$_String_val@U?$_Simple_types@D@std@@@std@@QEAA@XZ ; std::_String_val<std::_Simple_types<char> >::_Bxty::_Bxty
PUBLIC	??Z?$_Vector_iterator@V?$_Vector_val@U?$_Simple_types@V?$basic_string@DU?$char_traits@D@std@@V?$allocator@D@2@@std@@@std@@@std@@@std@@QEAAAEAV01@_J@Z ; std::_Vector_iterator<std::_Vector_val<std::_Simple_types<std::basic_string<char,std::char_traits<char>,std::allocator<char> > > > >::operator-=
PUBLIC	??Y?$_Vector_iterator@V?$_Vector_val@U?$_Simple_types@PEAVAddress@@@std@@@std@@@std@@QEAAAEAV01@_J@Z ; std::_Vector_iterator<std::_Vector_val<std::_Simple_types<Address * __ptr64> > >::operator+=
PUBLIC	??Z?$_Vector_iterator@V?$_Vector_val@U?$_Simple_types@PEAVAddress@@@std@@@std@@@std@@QEAAAEAV01@_J@Z ; std::_Vector_iterator<std::_Vector_val<std::_Simple_types<Address * __ptr64> > >::operator-=
PUBLIC	?__autoclassinit2@?$_Vector_iterator@V?$_Vector_val@U?$_Simple_types@PEAVAddress@@@std@@@std@@@std@@QEAAX_K@Z ; std::_Vector_iterator<std::_Vector_val<std::_Simple_types<Address * __ptr64> > >::__autoclassinit2
PUBLIC	??0?$allocator@D@std@@QEAA@XZ			; std::allocator<char>::allocator<char>
PUBLIC	??0?$_Wrap_alloc@V?$allocator@D@std@@@std@@QEAA@XZ ; std::_Wrap_alloc<std::allocator<char> >::_Wrap_alloc<std::allocator<char> >
PUBLIC	??0?$_String_val@U?$_Simple_types@D@std@@@std@@QEAA@XZ ; std::_String_val<std::_Simple_types<char> >::_String_val<std::_Simple_types<char> >
PUBLIC	?end@?$vector@V?$basic_string@DU?$char_traits@D@std@@V?$allocator@D@2@@std@@V?$allocator@V?$basic_string@DU?$char_traits@D@std@@V?$allocator@D@2@@std@@@2@@std@@QEAA?AV?$_Vector_iterator@V?$_Vector_val@U?$_Simple_types@V?$basic_string@DU?$char_traits@D@std@@V?$allocator@D@2@@std@@@std@@@std@@@2@XZ ; std::vector<std::basic_string<char,std::char_traits<char>,std::allocator<char> >,std::allocator<std::basic_string<char,std::char_traits<char>,std::allocator<char> > > >::end
PUBLIC	??G?$_Vector_iterator@V?$_Vector_val@U?$_Simple_types@V?$basic_string@DU?$char_traits@D@std@@V?$allocator@D@2@@std@@@std@@@std@@@std@@QEBA?AV01@_J@Z ; std::_Vector_iterator<std::_Vector_val<std::_Simple_types<std::basic_string<char,std::char_traits<char>,std::allocator<char> > > > >::operator-
PUBLIC	?end@?$vector@PEAVAddress@@V?$allocator@PEAVAddress@@@std@@@std@@QEAA?AV?$_Vector_iterator@V?$_Vector_val@U?$_Simple_types@PEAVAddress@@@std@@@std@@@2@XZ ; std::vector<Address * __ptr64,std::allocator<Address * __ptr64> >::end
PUBLIC	??H?$_Vector_iterator@V?$_Vector_val@U?$_Simple_types@PEAVAddress@@@std@@@std@@@std@@QEBA?AV01@_J@Z ; std::_Vector_iterator<std::_Vector_val<std::_Simple_types<Address * __ptr64> > >::operator+
PUBLIC	??G?$_Vector_iterator@V?$_Vector_val@U?$_Simple_types@PEAVAddress@@@std@@@std@@@std@@QEBA?AV01@_J@Z ; std::_Vector_iterator<std::_Vector_val<std::_Simple_types<Address * __ptr64> > >::operator-
PUBLIC	?size@?$bitset@$0BA@@std@@QEBA_KXZ		; std::bitset<16>::size
PUBLIC	??0bad_cast@std@@QEAA@AEBV01@@Z			; std::bad_cast::bad_cast
PUBLIC	??$?9V?$allocator@D@std@@V01@@std@@YA_NAEBU?$_Wrap_alloc@V?$allocator@D@std@@@0@0@Z ; std::operator!=<std::allocator<char>,std::allocator<char> >
PUBLIC	??$swap@D$0BA@X@std@@YAXAEAY0BA@D0@Z		; std::swap<char,16,void>
PUBLIC	??$_Swap_adl@PEAD@std@@YAXAEAPEAD0@Z		; std::_Swap_adl<char * __ptr64>
PUBLIC	??$_Destroy_range@V?$allocator@V?$basic_string@DU?$char_traits@D@std@@V?$allocator@D@2@@std@@@std@@PEAV?$basic_string@DU?$char_traits@D@std@@V?$allocator@D@2@@2@@std@@YAXPEAV?$basic_string@DU?$char_traits@D@std@@V?$allocator@D@2@@0@0AEAU?$_Wrap_alloc@V?$allocator@V?$basic_string@DU?$char_traits@D@std@@V?$allocator@D@2@@std@@@std@@@0@@Z ; std::_Destroy_range<std::allocator<std::basic_string<char,std::char_traits<char>,std::allocator<char> > >,std::basic_string<char,std::char_traits<char>,std::allocator<char> > * __ptr64>
PUBLIC	??$_Umove@PEAV?$basic_string@DU?$char_traits@D@std@@V?$allocator@D@2@@std@@@?$vector@V?$basic_string@DU?$char_traits@D@std@@V?$allocator@D@2@@std@@V?$allocator@V?$basic_string@DU?$char_traits@D@std@@V?$allocator@D@2@@std@@@2@@std@@IEAAPEAV?$basic_string@DU?$char_traits@D@std@@V?$allocator@D@2@@1@PEAV21@00@Z ; std::vector<std::basic_string<char,std::char_traits<char>,std::allocator<char> >,std::allocator<std::basic_string<char,std::char_traits<char>,std::allocator<char> > > >::_Umove<std::basic_string<char,std::char_traits<char>,std::allocator<char> > * __ptr64>
PUBLIC	??$_Destroy_range@V?$allocator@PEAVPerson@@@std@@PEAPEAVPerson@@@std@@YAXPEAPEAVPerson@@0AEAU?$_Wrap_alloc@V?$allocator@PEAVPerson@@@std@@@0@@Z ; std::_Destroy_range<std::allocator<Person * __ptr64>,Person * __ptr64 * __ptr64>
PUBLIC	??$_Destroy_range@V?$allocator@PEAVAddress@@@std@@PEAPEAVAddress@@@std@@YAXPEAPEAVAddress@@0AEAU?$_Wrap_alloc@V?$allocator@PEAVAddress@@@std@@@0@@Z ; std::_Destroy_range<std::allocator<Address * __ptr64>,Address * __ptr64 * __ptr64>
PUBLIC	??$_Destroy_range@V?$allocator@H@std@@PEAH@std@@YAXPEAH0AEAU?$_Wrap_alloc@V?$allocator@H@std@@@0@@Z ; std::_Destroy_range<std::allocator<int>,int * __ptr64>
PUBLIC	??$construct@PEADAEAPEAD@?$_Wrap_alloc@V?$allocator@D@std@@@std@@QEAAXPEAPEADAEAPEAD@Z ; std::_Wrap_alloc<std::allocator<char> >::construct<char * __ptr64,char * __ptr64 & __ptr64>
PUBLIC	??$swap@_KX@std@@YAXAEA_K0@Z			; std::swap<unsigned __int64,void>
PUBLIC	??$_Pocs@U?$_Wrap_alloc@V?$allocator@D@std@@@std@@@std@@YAXAEAU?$_Wrap_alloc@V?$allocator@D@std@@@0@0@Z ; std::_Pocs<std::_Wrap_alloc<std::allocator<char> > >
PUBLIC	??$_Unfancy@D@std@@YAPEADPEAD@Z			; std::_Unfancy<char>
PUBLIC	??$destroy@PEAD@?$_Wrap_alloc@V?$allocator@D@std@@@std@@QEAAXPEAPEAD@Z ; std::_Wrap_alloc<std::allocator<char> >::destroy<char * __ptr64>
PUBLIC	??$addressof@PEAD@std@@YAPEAPEADAEAPEAD@Z	; std::addressof<char * __ptr64>
PUBLIC	??$?0$$V@?$_Compressed_pair@U?$_Wrap_alloc@V?$allocator@D@std@@@std@@V?$_String_val@U?$_Simple_types@D@std@@@2@$00@std@@QEAA@U_Zero_then_variadic_args_t@1@@Z ; std::_Compressed_pair<std::_Wrap_alloc<std::allocator<char> >,std::_String_val<std::_Simple_types<char> >,1>::_Compressed_pair<std::_Wrap_alloc<std::allocator<char> >,std::_String_val<std::_Simple_types<char> >,1><>
PUBLIC	??$?0V?$allocator@D@std@@@?$_Wrap_alloc@V?$allocator@D@std@@@std@@QEAA@$$QEAV?$allocator@D@1@@Z ; std::_Wrap_alloc<std::allocator<char> >::_Wrap_alloc<std::allocator<char> ><std::allocator<char> >
PUBLIC	??$forward@V?$basic_string@DU?$char_traits@D@std@@V?$allocator@D@2@@std@@@std@@YA$$QEAV?$basic_string@DU?$char_traits@D@std@@V?$allocator@D@2@@0@AEAV10@@Z ; std::forward<std::basic_string<char,std::char_traits<char>,std::allocator<char> > >
PUBLIC	??$?0U?$_Wrap_alloc@V?$allocator@D@std@@@std@@X@?$_String_alloc@U?$_String_base_types@DV?$allocator@D@std@@@std@@@std@@QEAA@$$QEAU?$_Wrap_alloc@V?$allocator@D@std@@@1@@Z ; std::_String_alloc<std::_String_base_types<char,std::allocator<char> > >::_String_alloc<std::_String_base_types<char,std::allocator<char> > ><std::_Wrap_alloc<std::allocator<char> >,void>
PUBLIC	??$move@AEAU?$_Wrap_alloc@V?$allocator@D@std@@@std@@@std@@YA$$QEAU?$_Wrap_alloc@V?$allocator@D@std@@@0@AEAU10@@Z ; std::move<std::_Wrap_alloc<std::allocator<char> > & __ptr64>
PUBLIC	??$emplace@V?$basic_string@DU?$char_traits@D@std@@V?$allocator@D@2@@std@@@?$vector@V?$basic_string@DU?$char_traits@D@std@@V?$allocator@D@2@@std@@V?$allocator@V?$basic_string@DU?$char_traits@D@std@@V?$allocator@D@2@@std@@@2@@std@@QEAA?AV?$_Vector_iterator@V?$_Vector_val@U?$_Simple_types@V?$basic_string@DU?$char_traits@D@std@@V?$allocator@D@2@@std@@@std@@@std@@@1@V?$_Vector_const_iterator@V?$_Vector_val@U?$_Simple_types@V?$basic_string@DU?$char_traits@D@std@@V?$allocator@D@2@@std@@@std@@@std@@@1@$$QEAV?$basic_string@DU?$char_traits@D@std@@V?$allocator@D@2@@1@@Z ; std::vector<std::basic_string<char,std::char_traits<char>,std::allocator<char> >,std::allocator<std::basic_string<char,std::char_traits<char>,std::allocator<char> > > >::emplace<std::basic_string<char,std::char_traits<char>,std::allocator<char> > >
PUBLIC	??$move@AEAV?$basic_string@DU?$char_traits@D@std@@V?$allocator@D@2@@std@@@std@@YA$$QEAV?$basic_string@DU?$char_traits@D@std@@V?$allocator@D@2@@0@AEAV10@@Z ; std::move<std::basic_string<char,std::char_traits<char>,std::allocator<char> > & __ptr64>
PUBLIC	??$_Construct@PEBV?$basic_string@DU?$char_traits@D@std@@V?$allocator@D@2@@std@@@?$vector@V?$basic_string@DU?$char_traits@D@std@@V?$allocator@D@2@@std@@V?$allocator@V?$basic_string@DU?$char_traits@D@std@@V?$allocator@D@2@@std@@@2@@std@@QEAAXPEBV?$basic_string@DU?$char_traits@D@std@@V?$allocator@D@2@@1@0@Z ; std::vector<std::basic_string<char,std::char_traits<char>,std::allocator<char> >,std::allocator<std::basic_string<char,std::char_traits<char>,std::allocator<char> > > >::_Construct<std::basic_string<char,std::char_traits<char>,std::allocator<char> > const * __ptr64>
PUBLIC	??$?0AEBV?$allocator@V?$basic_string@DU?$char_traits@D@std@@V?$allocator@D@2@@std@@@std@@X@?$_Vector_alloc@U?$_Vec_base_types@V?$basic_string@DU?$char_traits@D@std@@V?$allocator@D@2@@std@@V?$allocator@V?$basic_string@DU?$char_traits@D@std@@V?$allocator@D@2@@std@@@2@@std@@@std@@QEAA@AEBV?$allocator@V?$basic_string@DU?$char_traits@D@std@@V?$allocator@D@2@@std@@@1@@Z ; std::_Vector_alloc<std::_Vec_base_types<std::basic_string<char,std::char_traits<char>,std::allocator<char> >,std::allocator<std::basic_string<char,std::char_traits<char>,std::allocator<char> > > > >::_Vector_alloc<std::_Vec_base_types<std::basic_string<char,std::char_traits<char>,std::allocator<char> >,std::allocator<std::basic_string<char,std::char_traits<char>,std::allocator<char> > > > ><std::allocator<std::basic_string<char,std::char_traits<char>,std::allocator<char> > > const & __ptr64,void>
PUBLIC	??$_Uninitialized_default_fill_n@PEAV?$basic_string@DU?$char_traits@D@std@@V?$allocator@D@2@@std@@_KV?$allocator@V?$basic_string@DU?$char_traits@D@std@@V?$allocator@D@2@@std@@@2@@std@@YAXPEAV?$basic_string@DU?$char_traits@D@std@@V?$allocator@D@2@@0@_KAEAU?$_Wrap_alloc@V?$allocator@V?$basic_string@DU?$char_traits@D@std@@V?$allocator@D@2@@std@@@std@@@0@@Z ; std::_Uninitialized_default_fill_n<std::basic_string<char,std::char_traits<char>,std::allocator<char> > * __ptr64,unsigned __int64,std::allocator<std::basic_string<char,std::char_traits<char>,std::allocator<char> > > >
PUBLIC	??$_Construct@PEBQEAVPerson@@@?$vector@PEAVPerson@@V?$allocator@PEAVPerson@@@std@@@std@@QEAAXPEBQEAVPerson@@0@Z ; std::vector<Person * __ptr64,std::allocator<Person * __ptr64> >::_Construct<Person * __ptr64 const * __ptr64>
PUBLIC	??$?0AEBV?$allocator@PEAVPerson@@@std@@X@?$_Vector_alloc@U?$_Vec_base_types@PEAVPerson@@V?$allocator@PEAVPerson@@@std@@@std@@@std@@QEAA@AEBV?$allocator@PEAVPerson@@@1@@Z ; std::_Vector_alloc<std::_Vec_base_types<Person * __ptr64,std::allocator<Person * __ptr64> > >::_Vector_alloc<std::_Vec_base_types<Person * __ptr64,std::allocator<Person * __ptr64> > ><std::allocator<Person * __ptr64> const & __ptr64,void>
PUBLIC	??$emplace@PEAVAddress@@@?$vector@PEAVAddress@@V?$allocator@PEAVAddress@@@std@@@std@@QEAA?AV?$_Vector_iterator@V?$_Vector_val@U?$_Simple_types@PEAVAddress@@@std@@@std@@@1@V?$_Vector_const_iterator@V?$_Vector_val@U?$_Simple_types@PEAVAddress@@@std@@@std@@@1@$$QEAPEAVAddress@@@Z ; std::vector<Address * __ptr64,std::allocator<Address * __ptr64> >::emplace<Address * __ptr64>
PUBLIC	??$move@AEAPEAVAddress@@@std@@YA$$QEAPEAVAddress@@AEAPEAV1@@Z ; std::move<Address * __ptr64 & __ptr64>
PUBLIC	??$_Construct@PEBQEAVAddress@@@?$vector@PEAVAddress@@V?$allocator@PEAVAddress@@@std@@@std@@QEAAXPEBQEAVAddress@@0@Z ; std::vector<Address * __ptr64,std::allocator<Address * __ptr64> >::_Construct<Address * __ptr64 const * __ptr64>
PUBLIC	??$?0AEBV?$allocator@PEAVAddress@@@std@@X@?$_Vector_alloc@U?$_Vec_base_types@PEAVAddress@@V?$allocator@PEAVAddress@@@std@@@std@@@std@@QEAA@AEBV?$allocator@PEAVAddress@@@1@@Z ; std::_Vector_alloc<std::_Vec_base_types<Address * __ptr64,std::allocator<Address * __ptr64> > >::_Vector_alloc<std::_Vec_base_types<Address * __ptr64,std::allocator<Address * __ptr64> > ><std::allocator<Address * __ptr64> const & __ptr64,void>
PUBLIC	??$_Construct@PEBH@?$vector@HV?$allocator@H@std@@@std@@QEAAXPEBH0@Z ; std::vector<int,std::allocator<int> >::_Construct<int const * __ptr64>
PUBLIC	??$?0AEBV?$allocator@H@std@@X@?$_Vector_alloc@U?$_Vec_base_types@HV?$allocator@H@std@@@std@@@std@@QEAA@AEBV?$allocator@H@1@@Z ; std::_Vector_alloc<std::_Vec_base_types<int,std::allocator<int> > >::_Vector_alloc<std::_Vec_base_types<int,std::allocator<int> > ><std::allocator<int> const & __ptr64,void>
PUBLIC	??$getline@DU?$char_traits@D@std@@V?$allocator@D@2@@std@@YAAEAV?$basic_istream@DU?$char_traits@D@std@@@0@AEAV10@AEAV?$basic_string@DU?$char_traits@D@std@@V?$allocator@D@2@@0@@Z ; std::getline<char,std::char_traits<char>,std::allocator<char> >
PUBLIC	??$size@J$05@std@@YA_KAEAY05$$CBJ@Z		; std::size<long,6>
PUBLIC	??$?6DU?$char_traits@D@std@@$0BA@@std@@YAAEAV?$basic_ostream@DU?$char_traits@D@std@@@0@AEAV10@AEBV?$bitset@$0BA@@0@@Z ; std::operator<<<char,std::char_traits<char>,16>
PUBLIC	??$?5DU?$char_traits@D@std@@$0BA@@std@@YAAEAV?$basic_istream@DU?$char_traits@D@std@@@0@AEAV10@AEAV?$bitset@$0BA@@0@@Z ; std::operator>><char,std::char_traits<char>,16>
PUBLIC	??$?5DU?$char_traits@D@std@@V?$allocator@D@1@@std@@YAAEAV?$basic_istream@DU?$char_traits@D@std@@@0@AEAV10@AEAV?$basic_string@DU?$char_traits@D@std@@V?$allocator@D@2@@0@@Z ; std::operator>><char,std::char_traits<char>,std::allocator<char> >
PUBLIC	??$endl@DU?$char_traits@D@std@@@std@@YAAEAV?$basic_ostream@DU?$char_traits@D@std@@@0@AEAV10@@Z ; std::endl<char,std::char_traits<char> >
PUBLIC	??$?6DU?$char_traits@D@std@@V?$allocator@D@1@@std@@YAAEAV?$basic_ostream@DU?$char_traits@D@std@@@0@AEAV10@AEBV?$basic_string@DU?$char_traits@D@std@@V?$allocator@D@2@@0@@Z ; std::operator<<<char,std::char_traits<char>,std::allocator<char> >
PUBLIC	??$?6U?$char_traits@D@std@@@std@@YAAEAV?$basic_ostream@DU?$char_traits@D@std@@@0@AEAV10@PEBD@Z ; std::operator<<<std::char_traits<char> >
PUBLIC	??$end@D$0BF@@std@@YAPEADAEAY0BF@D@Z		; std::end<char,21>
PUBLIC	??$_Integral_to_string@DH@std@@YA?AV?$basic_string@DU?$char_traits@D@std@@V?$allocator@D@2@@0@H@Z ; std::_Integral_to_string<char,int>
PUBLIC	??$use_facet@V?$ctype@D@std@@@std@@YAAEBV?$ctype@D@0@AEBVlocale@0@@Z ; std::use_facet<std::ctype<char> >
PUBLIC	?max_size@?$allocator@D@std@@QEBA_KXZ		; std::allocator<char>::max_size
PUBLIC	?allocate@?$allocator@D@std@@QEAAPEAD_K@Z	; std::allocator<char>::allocate
PUBLIC	?max_size@?$allocator_traits@V?$allocator@D@std@@@std@@SA_KAEBV?$allocator@D@2@@Z ; std::allocator_traits<std::allocator<char> >::max_size
PUBLIC	?max_size@?$allocator@V?$basic_string@DU?$char_traits@D@std@@V?$allocator@D@2@@std@@@std@@QEBA_KXZ ; std::allocator<std::basic_string<char,std::char_traits<char>,std::allocator<char> > >::max_size
PUBLIC	?allocate@?$_Wrap_alloc@V?$allocator@D@std@@@std@@QEAAPEAD_K@Z ; std::_Wrap_alloc<std::allocator<char> >::allocate
PUBLIC	?max_size@?$_Wrap_alloc@V?$allocator@D@std@@@std@@QEBA_KU_Nil@2@@Z ; std::_Wrap_alloc<std::allocator<char> >::max_size
PUBLIC	?allocate@?$allocator@V?$basic_string@DU?$char_traits@D@std@@V?$allocator@D@2@@std@@@std@@QEAAPEAV?$basic_string@DU?$char_traits@D@std@@V?$allocator@D@2@@2@_K@Z ; std::allocator<std::basic_string<char,std::char_traits<char>,std::allocator<char> > >::allocate
PUBLIC	?max_size@?$allocator_traits@V?$allocator@V?$basic_string@DU?$char_traits@D@std@@V?$allocator@D@2@@std@@@std@@@std@@SA_KAEBV?$allocator@V?$basic_string@DU?$char_traits@D@std@@V?$allocator@D@2@@std@@@2@@Z ; std::allocator_traits<std::allocator<std::basic_string<char,std::char_traits<char>,std::allocator<char> > > >::max_size
PUBLIC	?_Get_first@?$_Compressed_pair@U?$_Wrap_alloc@V?$allocator@V?$basic_string@DU?$char_traits@D@std@@V?$allocator@D@2@@std@@@std@@@std@@V?$_Vector_val@U?$_Simple_types@V?$basic_string@DU?$char_traits@D@std@@V?$allocator@D@2@@std@@@std@@@2@$00@std@@QEBAAEBU?$_Wrap_alloc@V?$allocator@V?$basic_string@DU?$char_traits@D@std@@V?$allocator@D@2@@std@@@std@@@2@XZ ; std::_Compressed_pair<std::_Wrap_alloc<std::allocator<std::basic_string<char,std::char_traits<char>,std::allocator<char> > > >,std::_Vector_val<std::_Simple_types<std::basic_string<char,std::char_traits<char>,std::allocator<char> > > >,1>::_Get_first
PUBLIC	??0?$allocator@D@std@@QEAA@AEBV01@@Z		; std::allocator<char>::allocator<char>
PUBLIC	?deallocate@?$allocator@D@std@@QEAAXPEAD_K@Z	; std::allocator<char>::deallocate
PUBLIC	?max_size@?$basic_string@DU?$char_traits@D@std@@V?$allocator@D@2@@std@@QEBA_KXZ ; std::basic_string<char,std::char_traits<char>,std::allocator<char> >::max_size
PUBLIC	?_Copy@?$basic_string@DU?$char_traits@D@std@@V?$allocator@D@2@@std@@QEAAX_K0@Z ; std::basic_string<char,std::char_traits<char>,std::allocator<char> >::_Copy
PUBLIC	?_Xran@?$basic_string@DU?$char_traits@D@std@@V?$allocator@D@2@@std@@QEBAXXZ ; std::basic_string<char,std::char_traits<char>,std::allocator<char> >::_Xran
PUBLIC	?_Get_second@?$_Compressed_pair@U?$_Wrap_alloc@V?$allocator@D@std@@@std@@V?$_String_val@U?$_Simple_types@D@std@@@2@$00@std@@QEAAAEAV?$_String_val@U?$_Simple_types@D@std@@@2@XZ ; std::_Compressed_pair<std::_Wrap_alloc<std::allocator<char> >,std::_String_val<std::_Simple_types<char> >,1>::_Get_second
PUBLIC	?_Get_second@?$_Compressed_pair@U?$_Wrap_alloc@V?$allocator@D@std@@@std@@V?$_String_val@U?$_Simple_types@D@std@@@2@$00@std@@QEBAAEBV?$_String_val@U?$_Simple_types@D@std@@@2@XZ ; std::_Compressed_pair<std::_Wrap_alloc<std::allocator<char> >,std::_String_val<std::_Simple_types<char> >,1>::_Get_second
PUBLIC	?deallocate@?$allocator@V?$basic_string@DU?$char_traits@D@std@@V?$allocator@D@2@@std@@@std@@QEAAXPEAV?$basic_string@DU?$char_traits@D@std@@V?$allocator@D@2@@2@_K@Z ; std::allocator<std::basic_string<char,std::char_traits<char>,std::allocator<char> > >::deallocate
PUBLIC	?capacity@?$vector@V?$basic_string@DU?$char_traits@D@std@@V?$allocator@D@2@@std@@V?$allocator@V?$basic_string@DU?$char_traits@D@std@@V?$allocator@D@2@@std@@@2@@std@@QEBA_KXZ ; std::vector<std::basic_string<char,std::char_traits<char>,std::allocator<char> >,std::allocator<std::basic_string<char,std::char_traits<char>,std::allocator<char> > > >::capacity
PUBLIC	?_Getal@?$_Vector_alloc@U?$_Vec_base_types@V?$basic_string@DU?$char_traits@D@std@@V?$allocator@D@2@@std@@V?$allocator@V?$basic_string@DU?$char_traits@D@std@@V?$allocator@D@2@@std@@@2@@std@@@std@@QEBAAEBU?$_Wrap_alloc@V?$allocator@V?$basic_string@DU?$char_traits@D@std@@V?$allocator@D@2@@std@@@std@@@2@XZ ; std::_Vector_alloc<std::_Vec_base_types<std::basic_string<char,std::char_traits<char>,std::allocator<char> >,std::allocator<std::basic_string<char,std::char_traits<char>,std::allocator<char> > > > >::_Getal
PUBLIC	?_Myend@?$_Vector_alloc@U?$_Vec_base_types@V?$basic_string@DU?$char_traits@D@std@@V?$allocator@D@2@@std@@V?$allocator@V?$basic_string@DU?$char_traits@D@std@@V?$allocator@D@2@@std@@@2@@std@@@std@@QEBAAEBQEAV?$basic_string@DU?$char_traits@D@std@@V?$allocator@D@2@@2@XZ ; std::_Vector_alloc<std::_Vec_base_types<std::basic_string<char,std::char_traits<char>,std::allocator<char> >,std::allocator<std::basic_string<char,std::char_traits<char>,std::allocator<char> > > > >::_Myend
PUBLIC	?allocate@?$_Wrap_alloc@V?$allocator@V?$basic_string@DU?$char_traits@D@std@@V?$allocator@D@2@@std@@@std@@@std@@QEAAPEAV?$basic_string@DU?$char_traits@D@std@@V?$allocator@D@2@@2@_K@Z ; std::_Wrap_alloc<std::allocator<std::basic_string<char,std::char_traits<char>,std::allocator<char> > > >::allocate
PUBLIC	?max_size@?$_Wrap_alloc@V?$allocator@V?$basic_string@DU?$char_traits@D@std@@V?$allocator@D@2@@std@@@std@@@std@@QEBA_KU_Nil@2@@Z ; std::_Wrap_alloc<std::allocator<std::basic_string<char,std::char_traits<char>,std::allocator<char> > > >::max_size
PUBLIC	?deallocate@?$allocator@PEAVPerson@@@std@@QEAAXPEAPEAVPerson@@_K@Z ; std::allocator<Person * __ptr64>::deallocate
PUBLIC	?deallocate@?$allocator@PEAVAddress@@@std@@QEAAXPEAPEAVAddress@@_K@Z ; std::allocator<Address * __ptr64>::deallocate
PUBLIC	?_Get_first@?$_Compressed_pair@U?$_Wrap_alloc@V?$allocator@PEAVPerson@@@std@@@std@@V?$_Vector_val@U?$_Simple_types@PEAVPerson@@@std@@@2@$00@std@@QEAAAEAU?$_Wrap_alloc@V?$allocator@PEAVPerson@@@std@@@2@XZ ; std::_Compressed_pair<std::_Wrap_alloc<std::allocator<Person * __ptr64> >,std::_Vector_val<std::_Simple_types<Person * __ptr64> >,1>::_Get_first
PUBLIC	?_Get_first@?$_Compressed_pair@U?$_Wrap_alloc@V?$allocator@PEAVAddress@@@std@@@std@@V?$_Vector_val@U?$_Simple_types@PEAVAddress@@@std@@@2@$00@std@@QEAAAEAU?$_Wrap_alloc@V?$allocator@PEAVAddress@@@std@@@2@XZ ; std::_Compressed_pair<std::_Wrap_alloc<std::allocator<Address * __ptr64> >,std::_Vector_val<std::_Simple_types<Address * __ptr64> >,1>::_Get_first
PUBLIC	?deallocate@?$allocator@H@std@@QEAAXPEAH_K@Z	; std::allocator<int>::deallocate
PUBLIC	?_Get_first@?$_Compressed_pair@U?$_Wrap_alloc@V?$allocator@H@std@@@std@@V?$_Vector_val@U?$_Simple_types@H@std@@@2@$00@std@@QEAAAEAU?$_Wrap_alloc@V?$allocator@H@std@@@2@XZ ; std::_Compressed_pair<std::_Wrap_alloc<std::allocator<int> >,std::_Vector_val<std::_Simple_types<int> >,1>::_Get_first
PUBLIC	?_Get_second@?$_Compressed_pair@U?$_Wrap_alloc@V?$allocator@H@std@@@std@@V?$_Vector_val@U?$_Simple_types@H@std@@@2@$00@std@@QEBAAEBV?$_Vector_val@U?$_Simple_types@H@std@@@2@XZ ; std::_Compressed_pair<std::_Wrap_alloc<std::allocator<int> >,std::_Vector_val<std::_Simple_types<int> >,1>::_Get_second
PUBLIC	?erase@?$basic_string@DU?$char_traits@D@std@@V?$allocator@D@2@@std@@QEAAAEAV12@_K@Z ; std::basic_string<char,std::char_traits<char>,std::allocator<char> >::erase
PUBLIC	?erase@?$basic_string@DU?$char_traits@D@std@@V?$allocator@D@2@@std@@QEAAAEAV12@_K0@Z ; std::basic_string<char,std::char_traits<char>,std::allocator<char> >::erase
PUBLIC	?_Swap_bx@?$basic_string@DU?$char_traits@D@std@@V?$allocator@D@2@@std@@QEAAXAEAV12@@Z ; std::basic_string<char,std::char_traits<char>,std::allocator<char> >::_Swap_bx
PUBLIC	?_Clamp_suffix_size@?$basic_string@DU?$char_traits@D@std@@V?$allocator@D@2@@std@@QEBA_K_K0@Z ; std::basic_string<char,std::char_traits<char>,std::allocator<char> >::_Clamp_suffix_size
PUBLIC	?_Chassign@?$basic_string@DU?$char_traits@D@std@@V?$allocator@D@2@@std@@QEAAX_K0D@Z ; std::basic_string<char,std::char_traits<char>,std::allocator<char> >::_Chassign
PUBLIC	?_Eos@?$basic_string@DU?$char_traits@D@std@@V?$allocator@D@2@@std@@QEAAX_K@Z ; std::basic_string<char,std::char_traits<char>,std::allocator<char> >::_Eos
PUBLIC	?_Grow@?$basic_string@DU?$char_traits@D@std@@V?$allocator@D@2@@std@@QEAA_N_K_N@Z ; std::basic_string<char,std::char_traits<char>,std::allocator<char> >::_Grow
PUBLIC	?_Inside@?$basic_string@DU?$char_traits@D@std@@V?$allocator@D@2@@std@@QEAA_NPEBD@Z ; std::basic_string<char,std::char_traits<char>,std::allocator<char> >::_Inside
PUBLIC	?_Xlen@?$basic_string@DU?$char_traits@D@std@@V?$allocator@D@2@@std@@QEBAXXZ ; std::basic_string<char,std::char_traits<char>,std::allocator<char> >::_Xlen
PUBLIC	?_Check_offset@?$basic_string@DU?$char_traits@D@std@@V?$allocator@D@2@@std@@QEBAX_K@Z ; std::basic_string<char,std::char_traits<char>,std::allocator<char> >::_Check_offset
PUBLIC	?_Swap_all@?$_String_alloc@U?$_String_base_types@DV?$allocator@D@std@@@std@@@std@@QEAAXAEAV12@@Z ; std::_String_alloc<std::_String_base_types<char,std::allocator<char> > >::_Swap_all
PUBLIC	?_Get_data@?$_String_alloc@U?$_String_base_types@DV?$allocator@D@std@@@std@@@std@@QEAAAEAV?$_String_val@U?$_Simple_types@D@std@@@2@XZ ; std::_String_alloc<std::_String_base_types<char,std::allocator<char> > >::_Get_data
PUBLIC	?_Get_data@?$_String_alloc@U?$_String_base_types@DV?$allocator@D@std@@@std@@@std@@QEBAAEBV?$_String_val@U?$_Simple_types@D@std@@@2@XZ ; std::_String_alloc<std::_String_base_types<char,std::allocator<char> > >::_Get_data
PUBLIC	?_Bx@?$_String_alloc@U?$_String_base_types@DV?$allocator@D@std@@@std@@@std@@QEAAAEAT_Bxty@?$_String_val@U?$_Simple_types@D@std@@@2@XZ ; std::_String_alloc<std::_String_base_types<char,std::allocator<char> > >::_Bx
PUBLIC	?_Mysize@?$_String_alloc@U?$_String_base_types@DV?$allocator@D@std@@@std@@@std@@QEAAAEA_KXZ ; std::_String_alloc<std::_String_base_types<char,std::allocator<char> > >::_Mysize
PUBLIC	?_Myres@?$_String_alloc@U?$_String_base_types@DV?$allocator@D@std@@@std@@@std@@QEAAAEA_KXZ ; std::_String_alloc<std::_String_base_types<char,std::allocator<char> > >::_Myres
PUBLIC	?deallocate@?$_Wrap_alloc@V?$allocator@D@std@@@std@@QEAAXPEAD_K@Z ; std::_Wrap_alloc<std::allocator<char> >::deallocate
PUBLIC	?select_on_container_copy_construction@?$allocator_traits@V?$allocator@D@std@@@std@@SA?AV?$allocator@D@2@AEBV32@@Z ; std::allocator_traits<std::allocator<char> >::select_on_container_copy_construction
PUBLIC	?_Myptr@?$_String_val@U?$_Simple_types@D@std@@@std@@QEAAPEADXZ ; std::_String_val<std::_Simple_types<char> >::_Myptr
PUBLIC	?_Myptr@?$_String_val@U?$_Simple_types@D@std@@@std@@QEBAPEBDXZ ; std::_String_val<std::_Simple_types<char> >::_Myptr
PUBLIC	?_Get_first@?$_Compressed_pair@U?$_Wrap_alloc@V?$allocator@D@std@@@std@@V?$_String_val@U?$_Simple_types@D@std@@@2@$00@std@@QEAAAEAU?$_Wrap_alloc@V?$allocator@D@std@@@2@XZ ; std::_Compressed_pair<std::_Wrap_alloc<std::allocator<char> >,std::_String_val<std::_Simple_types<char> >,1>::_Get_first
PUBLIC	?_Get_first@?$_Compressed_pair@U?$_Wrap_alloc@V?$allocator@D@std@@@std@@V?$_String_val@U?$_Simple_types@D@std@@@2@$00@std@@QEBAAEBU?$_Wrap_alloc@V?$allocator@D@std@@@2@XZ ; std::_Compressed_pair<std::_Wrap_alloc<std::allocator<char> >,std::_String_val<std::_Simple_types<char> >,1>::_Get_first
PUBLIC	??0_Sentry_base@?$basic_ostream@DU?$char_traits@D@std@@@std@@QEAA@AEAV12@@Z ; std::basic_ostream<char,std::char_traits<char> >::_Sentry_base::_Sentry_base
PUBLIC	??1_Sentry_base@?$basic_ostream@DU?$char_traits@D@std@@@std@@QEAA@XZ ; std::basic_ostream<char,std::char_traits<char> >::_Sentry_base::~_Sentry_base
PUBLIC	??0_Sentry_base@?$basic_istream@DU?$char_traits@D@std@@@std@@QEAA@AEAV12@@Z ; std::basic_istream<char,std::char_traits<char> >::_Sentry_base::_Sentry_base
PUBLIC	?_Unused_capacity@?$vector@V?$basic_string@DU?$char_traits@D@std@@V?$allocator@D@2@@std@@V?$allocator@V?$basic_string@DU?$char_traits@D@std@@V?$allocator@D@2@@std@@@2@@std@@QEBA_KXZ ; std::vector<std::basic_string<char,std::char_traits<char>,std::allocator<char> >,std::allocator<std::basic_string<char,std::char_traits<char>,std::allocator<char> > > >::_Unused_capacity
PUBLIC	?max_size@?$vector@V?$basic_string@DU?$char_traits@D@std@@V?$allocator@D@2@@std@@V?$allocator@V?$basic_string@DU?$char_traits@D@std@@V?$allocator@D@2@@std@@@2@@std@@QEBA_KXZ ; std::vector<std::basic_string<char,std::char_traits<char>,std::allocator<char> >,std::allocator<std::basic_string<char,std::char_traits<char>,std::allocator<char> > > >::max_size
PUBLIC	?_Destroy@?$vector@V?$basic_string@DU?$char_traits@D@std@@V?$allocator@D@2@@std@@V?$allocator@V?$basic_string@DU?$char_traits@D@std@@V?$allocator@D@2@@std@@@2@@std@@IEAAXPEAV?$basic_string@DU?$char_traits@D@std@@V?$allocator@D@2@@2@0@Z ; std::vector<std::basic_string<char,std::char_traits<char>,std::allocator<char> >,std::allocator<std::basic_string<char,std::char_traits<char>,std::allocator<char> > > >::_Destroy
PUBLIC	?_Grow_to@?$vector@V?$basic_string@DU?$char_traits@D@std@@V?$allocator@D@2@@std@@V?$allocator@V?$basic_string@DU?$char_traits@D@std@@V?$allocator@D@2@@std@@@2@@std@@IEBA_K_K@Z ; std::vector<std::basic_string<char,std::char_traits<char>,std::allocator<char> >,std::allocator<std::basic_string<char,std::char_traits<char>,std::allocator<char> > > >::_Grow_to
PUBLIC	?_Reallocate@?$vector@V?$basic_string@DU?$char_traits@D@std@@V?$allocator@D@2@@std@@V?$allocator@V?$basic_string@DU?$char_traits@D@std@@V?$allocator@D@2@@std@@@2@@std@@IEAAX_K@Z ; std::vector<std::basic_string<char,std::char_traits<char>,std::allocator<char> >,std::allocator<std::basic_string<char,std::char_traits<char>,std::allocator<char> > > >::_Reallocate
PUBLIC	?_Xlen@?$vector@V?$basic_string@DU?$char_traits@D@std@@V?$allocator@D@2@@std@@V?$allocator@V?$basic_string@DU?$char_traits@D@std@@V?$allocator@D@2@@std@@@2@@std@@IEBAXXZ ; std::vector<std::basic_string<char,std::char_traits<char>,std::allocator<char> >,std::allocator<std::basic_string<char,std::char_traits<char>,std::allocator<char> > > >::_Xlen
PUBLIC	?_Orphan_all@?$_Vector_alloc@U?$_Vec_base_types@V?$basic_string@DU?$char_traits@D@std@@V?$allocator@D@2@@std@@V?$allocator@V?$basic_string@DU?$char_traits@D@std@@V?$allocator@D@2@@std@@@2@@std@@@std@@QEAAXXZ ; std::_Vector_alloc<std::_Vec_base_types<std::basic_string<char,std::char_traits<char>,std::allocator<char> >,std::allocator<std::basic_string<char,std::char_traits<char>,std::allocator<char> > > > >::_Orphan_all
PUBLIC	?_Myend@?$_Vector_alloc@U?$_Vec_base_types@V?$basic_string@DU?$char_traits@D@std@@V?$allocator@D@2@@std@@V?$allocator@V?$basic_string@DU?$char_traits@D@std@@V?$allocator@D@2@@std@@@2@@std@@@std@@QEAAAEAPEAV?$basic_string@DU?$char_traits@D@std@@V?$allocator@D@2@@2@XZ ; std::_Vector_alloc<std::_Vec_base_types<std::basic_string<char,std::char_traits<char>,std::allocator<char> >,std::allocator<std::basic_string<char,std::char_traits<char>,std::allocator<char> > > > >::_Myend
PUBLIC	?deallocate@?$_Wrap_alloc@V?$allocator@V?$basic_string@DU?$char_traits@D@std@@V?$allocator@D@2@@std@@@std@@@std@@QEAAXPEAV?$basic_string@DU?$char_traits@D@std@@V?$allocator@D@2@@2@_K@Z ; std::_Wrap_alloc<std::allocator<std::basic_string<char,std::char_traits<char>,std::allocator<char> > > >::deallocate
PUBLIC	??Y?$_Vector_const_iterator@V?$_Vector_val@U?$_Simple_types@V?$basic_string@DU?$char_traits@D@std@@V?$allocator@D@2@@std@@@std@@@std@@@std@@QEAAAEAV01@_J@Z ; std::_Vector_const_iterator<std::_Vector_val<std::_Simple_types<std::basic_string<char,std::char_traits<char>,std::allocator<char> > > > >::operator+=
PUBLIC	?_Compat@?$_Vector_const_iterator@V?$_Vector_val@U?$_Simple_types@V?$basic_string@DU?$char_traits@D@std@@V?$allocator@D@2@@std@@@std@@@std@@@std@@QEBAXAEBV12@@Z ; std::_Vector_const_iterator<std::_Vector_val<std::_Simple_types<std::basic_string<char,std::char_traits<char>,std::allocator<char> > > > >::_Compat
PUBLIC	?_Get_first@?$_Compressed_pair@U?$_Wrap_alloc@V?$allocator@V?$basic_string@DU?$char_traits@D@std@@V?$allocator@D@2@@std@@@std@@@std@@V?$_Vector_val@U?$_Simple_types@V?$basic_string@DU?$char_traits@D@std@@V?$allocator@D@2@@std@@@std@@@2@$00@std@@QEAAAEAU?$_Wrap_alloc@V?$allocator@V?$basic_string@DU?$char_traits@D@std@@V?$allocator@D@2@@std@@@std@@@2@XZ ; std::_Compressed_pair<std::_Wrap_alloc<std::allocator<std::basic_string<char,std::char_traits<char>,std::allocator<char> > > >,std::_Vector_val<std::_Simple_types<std::basic_string<char,std::char_traits<char>,std::allocator<char> > > >,1>::_Get_first
PUBLIC	?_Get_second@?$_Compressed_pair@U?$_Wrap_alloc@V?$allocator@V?$basic_string@DU?$char_traits@D@std@@V?$allocator@D@2@@std@@@std@@@std@@V?$_Vector_val@U?$_Simple_types@V?$basic_string@DU?$char_traits@D@std@@V?$allocator@D@2@@std@@@std@@@2@$00@std@@QEAAAEAV?$_Vector_val@U?$_Simple_types@V?$basic_string@DU?$char_traits@D@std@@V?$allocator@D@2@@std@@@std@@@2@XZ ; std::_Compressed_pair<std::_Wrap_alloc<std::allocator<std::basic_string<char,std::char_traits<char>,std::allocator<char> > > >,std::_Vector_val<std::_Simple_types<std::basic_string<char,std::char_traits<char>,std::allocator<char> > > >,1>::_Get_second
PUBLIC	?_Get_second@?$_Compressed_pair@U?$_Wrap_alloc@V?$allocator@V?$basic_string@DU?$char_traits@D@std@@V?$allocator@D@2@@std@@@std@@@std@@V?$_Vector_val@U?$_Simple_types@V?$basic_string@DU?$char_traits@D@std@@V?$allocator@D@2@@std@@@std@@@2@$00@std@@QEBAAEBV?$_Vector_val@U?$_Simple_types@V?$basic_string@DU?$char_traits@D@std@@V?$allocator@D@2@@std@@@std@@@2@XZ ; std::_Compressed_pair<std::_Wrap_alloc<std::allocator<std::basic_string<char,std::char_traits<char>,std::allocator<char> > > >,std::_Vector_val<std::_Simple_types<std::basic_string<char,std::char_traits<char>,std::allocator<char> > > >,1>::_Get_second
PUBLIC	?_Destroy@?$vector@PEAVPerson@@V?$allocator@PEAVPerson@@@std@@@std@@IEAAXPEAPEAVPerson@@0@Z ; std::vector<Person * __ptr64,std::allocator<Person * __ptr64> >::_Destroy
PUBLIC	?_Destroy@?$vector@PEAVAddress@@V?$allocator@PEAVAddress@@@std@@@std@@IEAAXPEAPEAVAddress@@0@Z ; std::vector<Address * __ptr64,std::allocator<Address * __ptr64> >::_Destroy
PUBLIC	?_Orphan_all@?$_Vector_alloc@U?$_Vec_base_types@PEAVPerson@@V?$allocator@PEAVPerson@@@std@@@std@@@std@@QEAAXXZ ; std::_Vector_alloc<std::_Vec_base_types<Person * __ptr64,std::allocator<Person * __ptr64> > >::_Orphan_all
PUBLIC	?_Getal@?$_Vector_alloc@U?$_Vec_base_types@PEAVPerson@@V?$allocator@PEAVPerson@@@std@@@std@@@std@@QEAAAEAU?$_Wrap_alloc@V?$allocator@PEAVPerson@@@std@@@2@XZ ; std::_Vector_alloc<std::_Vec_base_types<Person * __ptr64,std::allocator<Person * __ptr64> > >::_Getal
PUBLIC	?_Myend@?$_Vector_alloc@U?$_Vec_base_types@PEAVPerson@@V?$allocator@PEAVPerson@@@std@@@std@@@std@@QEAAAEAPEAPEAVPerson@@XZ ; std::_Vector_alloc<std::_Vec_base_types<Person * __ptr64,std::allocator<Person * __ptr64> > >::_Myend
PUBLIC	?deallocate@?$_Wrap_alloc@V?$allocator@PEAVPerson@@@std@@@std@@QEAAXPEAPEAVPerson@@_K@Z ; std::_Wrap_alloc<std::allocator<Person * __ptr64> >::deallocate
PUBLIC	?_Compat@?$_Vector_const_iterator@V?$_Vector_val@U?$_Simple_types@PEAVPerson@@@std@@@std@@@std@@QEBAXAEBV12@@Z ; std::_Vector_const_iterator<std::_Vector_val<std::_Simple_types<Person * __ptr64> > >::_Compat
PUBLIC	?_Get_second@?$_Compressed_pair@U?$_Wrap_alloc@V?$allocator@PEAVPerson@@@std@@@std@@V?$_Vector_val@U?$_Simple_types@PEAVPerson@@@std@@@2@$00@std@@QEAAAEAV?$_Vector_val@U?$_Simple_types@PEAVPerson@@@std@@@2@XZ ; std::_Compressed_pair<std::_Wrap_alloc<std::allocator<Person * __ptr64> >,std::_Vector_val<std::_Simple_types<Person * __ptr64> >,1>::_Get_second
PUBLIC	?_Get_second@?$_Compressed_pair@U?$_Wrap_alloc@V?$allocator@PEAVPerson@@@std@@@std@@V?$_Vector_val@U?$_Simple_types@PEAVPerson@@@std@@@2@$00@std@@QEBAAEBV?$_Vector_val@U?$_Simple_types@PEAVPerson@@@std@@@2@XZ ; std::_Compressed_pair<std::_Wrap_alloc<std::allocator<Person * __ptr64> >,std::_Vector_val<std::_Simple_types<Person * __ptr64> >,1>::_Get_second
PUBLIC	?_Orphan_all@?$_Vector_alloc@U?$_Vec_base_types@PEAVAddress@@V?$allocator@PEAVAddress@@@std@@@std@@@std@@QEAAXXZ ; std::_Vector_alloc<std::_Vec_base_types<Address * __ptr64,std::allocator<Address * __ptr64> > >::_Orphan_all
PUBLIC	?_Getal@?$_Vector_alloc@U?$_Vec_base_types@PEAVAddress@@V?$allocator@PEAVAddress@@@std@@@std@@@std@@QEAAAEAU?$_Wrap_alloc@V?$allocator@PEAVAddress@@@std@@@2@XZ ; std::_Vector_alloc<std::_Vec_base_types<Address * __ptr64,std::allocator<Address * __ptr64> > >::_Getal
PUBLIC	?_Mylast@?$_Vector_alloc@U?$_Vec_base_types@PEAVAddress@@V?$allocator@PEAVAddress@@@std@@@std@@@std@@QEAAAEAPEAPEAVAddress@@XZ ; std::_Vector_alloc<std::_Vec_base_types<Address * __ptr64,std::allocator<Address * __ptr64> > >::_Mylast
PUBLIC	?_Myend@?$_Vector_alloc@U?$_Vec_base_types@PEAVAddress@@V?$allocator@PEAVAddress@@@std@@@std@@@std@@QEAAAEAPEAPEAVAddress@@XZ ; std::_Vector_alloc<std::_Vec_base_types<Address * __ptr64,std::allocator<Address * __ptr64> > >::_Myend
PUBLIC	?deallocate@?$_Wrap_alloc@V?$allocator@PEAVAddress@@@std@@@std@@QEAAXPEAPEAVAddress@@_K@Z ; std::_Wrap_alloc<std::allocator<Address * __ptr64> >::deallocate
PUBLIC	?_Compat@?$_Vector_const_iterator@V?$_Vector_val@U?$_Simple_types@PEAVAddress@@@std@@@std@@@std@@QEBAXAEBV12@@Z ; std::_Vector_const_iterator<std::_Vector_val<std::_Simple_types<Address * __ptr64> > >::_Compat
PUBLIC	?_Get_second@?$_Compressed_pair@U?$_Wrap_alloc@V?$allocator@PEAVAddress@@@std@@@std@@V?$_Vector_val@U?$_Simple_types@PEAVAddress@@@std@@@2@$00@std@@QEAAAEAV?$_Vector_val@U?$_Simple_types@PEAVAddress@@@std@@@2@XZ ; std::_Compressed_pair<std::_Wrap_alloc<std::allocator<Address * __ptr64> >,std::_Vector_val<std::_Simple_types<Address * __ptr64> >,1>::_Get_second
PUBLIC	?_Get_second@?$_Compressed_pair@U?$_Wrap_alloc@V?$allocator@PEAVAddress@@@std@@@std@@V?$_Vector_val@U?$_Simple_types@PEAVAddress@@@std@@@2@$00@std@@QEBAAEBV?$_Vector_val@U?$_Simple_types@PEAVAddress@@@std@@@2@XZ ; std::_Compressed_pair<std::_Wrap_alloc<std::allocator<Address * __ptr64> >,std::_Vector_val<std::_Simple_types<Address * __ptr64> >,1>::_Get_second
PUBLIC	?_Destroy@?$vector@HV?$allocator@H@std@@@std@@IEAAXPEAH0@Z ; std::vector<int,std::allocator<int> >::_Destroy
PUBLIC	?_Orphan_all@?$_Vector_alloc@U?$_Vec_base_types@HV?$allocator@H@std@@@std@@@std@@QEAAXXZ ; std::_Vector_alloc<std::_Vec_base_types<int,std::allocator<int> > >::_Orphan_all
PUBLIC	?_Getal@?$_Vector_alloc@U?$_Vec_base_types@HV?$allocator@H@std@@@std@@@std@@QEAAAEAU?$_Wrap_alloc@V?$allocator@H@std@@@2@XZ ; std::_Vector_alloc<std::_Vec_base_types<int,std::allocator<int> > >::_Getal
PUBLIC	?_Get_data@?$_Vector_alloc@U?$_Vec_base_types@HV?$allocator@H@std@@@std@@@std@@QEBAAEBV?$_Vector_val@U?$_Simple_types@H@std@@@2@XZ ; std::_Vector_alloc<std::_Vec_base_types<int,std::allocator<int> > >::_Get_data
PUBLIC	?_Myend@?$_Vector_alloc@U?$_Vec_base_types@HV?$allocator@H@std@@@std@@@std@@QEAAAEAPEAHXZ ; std::_Vector_alloc<std::_Vec_base_types<int,std::allocator<int> > >::_Myend
PUBLIC	?deallocate@?$_Wrap_alloc@V?$allocator@H@std@@@std@@QEAAXPEAH_K@Z ; std::_Wrap_alloc<std::allocator<int> >::deallocate
PUBLIC	??0?$_Vector_const_iterator@V?$_Vector_val@U?$_Simple_types@H@std@@@std@@@std@@QEAA@PEAHPEBU_Container_base0@1@@Z ; std::_Vector_const_iterator<std::_Vector_val<std::_Simple_types<int> > >::_Vector_const_iterator<std::_Vector_val<std::_Simple_types<int> > >
PUBLIC	?_Compat@?$_Vector_const_iterator@V?$_Vector_val@U?$_Simple_types@H@std@@@std@@@std@@QEBAXAEBV12@@Z ; std::_Vector_const_iterator<std::_Vector_val<std::_Simple_types<int> > >::_Compat
PUBLIC	?_Get_second@?$_Compressed_pair@U?$_Wrap_alloc@V?$allocator@H@std@@@std@@V?$_Vector_val@U?$_Simple_types@H@std@@@2@$00@std@@QEAAAEAV?$_Vector_val@U?$_Simple_types@H@std@@@2@XZ ; std::_Compressed_pair<std::_Wrap_alloc<std::allocator<int> >,std::_Vector_val<std::_Simple_types<int> >,1>::_Get_second
PUBLIC	?_Assign_rv@?$basic_string@DU?$char_traits@D@std@@V?$allocator@D@2@@std@@QEAAX$$QEAV12@@Z ; std::basic_string<char,std::char_traits<char>,std::allocator<char> >::_Assign_rv
PUBLIC	??Y?$basic_string@DU?$char_traits@D@std@@V?$allocator@D@2@@std@@QEAAAEAV01@D@Z ; std::basic_string<char,std::char_traits<char>,std::allocator<char> >::operator+=
PUBLIC	?append@?$basic_string@DU?$char_traits@D@std@@V?$allocator@D@2@@std@@QEAAAEAV12@_KD@Z ; std::basic_string<char,std::char_traits<char>,std::allocator<char> >::append
PUBLIC	?assign@?$basic_string@DU?$char_traits@D@std@@V?$allocator@D@2@@std@@QEAAAEAV12@AEBV12@_K1@Z ; std::basic_string<char,std::char_traits<char>,std::allocator<char> >::assign
PUBLIC	?assign@?$basic_string@DU?$char_traits@D@std@@V?$allocator@D@2@@std@@QEAAAEAV12@PEBD_K@Z ; std::basic_string<char,std::char_traits<char>,std::allocator<char> >::assign
PUBLIC	?assign@?$basic_string@DU?$char_traits@D@std@@V?$allocator@D@2@@std@@QEAAAEAV12@PEBD@Z ; std::basic_string<char,std::char_traits<char>,std::allocator<char> >::assign
PUBLIC	??A?$basic_string@DU?$char_traits@D@std@@V?$allocator@D@2@@std@@QEBAAEBD_K@Z ; std::basic_string<char,std::char_traits<char>,std::allocator<char> >::operator[]
PUBLIC	?size@?$basic_string@DU?$char_traits@D@std@@V?$allocator@D@2@@std@@QEBA_KXZ ; std::basic_string<char,std::char_traits<char>,std::allocator<char> >::size
PUBLIC	?swap@?$basic_string@DU?$char_traits@D@std@@V?$allocator@D@2@@std@@QEAAXAEAV12@@Z ; std::basic_string<char,std::char_traits<char>,std::allocator<char> >::swap
PUBLIC	?_Traits_compare@?$basic_string@DU?$char_traits@D@std@@V?$allocator@D@2@@std@@SAHQEBD_K01@Z ; std::basic_string<char,std::char_traits<char>,std::allocator<char> >::_Traits_compare
PUBLIC	?_Tidy@?$basic_string@DU?$char_traits@D@std@@V?$allocator@D@2@@std@@QEAAX_N_K@Z ; std::basic_string<char,std::char_traits<char>,std::allocator<char> >::_Tidy
PUBLIC	?_Myptr@?$_String_alloc@U?$_String_base_types@DV?$allocator@D@std@@@std@@@std@@QEAAPEADXZ ; std::_String_alloc<std::_String_base_types<char,std::allocator<char> > >::_Myptr
PUBLIC	?_Myptr@?$_String_alloc@U?$_String_base_types@DV?$allocator@D@std@@@std@@@std@@QEBAPEBDXZ ; std::_String_alloc<std::_String_base_types<char,std::allocator<char> > >::_Myptr
PUBLIC	??0?$_String_alloc@U?$_String_base_types@DV?$allocator@D@std@@@std@@@std@@QEAA@XZ ; std::_String_alloc<std::_String_base_types<char,std::allocator<char> > >::_String_alloc<std::_String_base_types<char,std::allocator<char> > >
PUBLIC	?_Getal@?$_String_alloc@U?$_String_base_types@DV?$allocator@D@std@@@std@@@std@@QEAAAEAU?$_Wrap_alloc@V?$allocator@D@std@@@2@XZ ; std::_String_alloc<std::_String_base_types<char,std::allocator<char> > >::_Getal
PUBLIC	?_Getal@?$_String_alloc@U?$_String_base_types@DV?$allocator@D@std@@@std@@@std@@QEBAAEBU?$_Wrap_alloc@V?$allocator@D@std@@@2@XZ ; std::_String_alloc<std::_String_base_types<char,std::allocator<char> > >::_Getal
PUBLIC	?_Mysize@?$_String_alloc@U?$_String_base_types@DV?$allocator@D@std@@@std@@@std@@QEBAAEB_KXZ ; std::_String_alloc<std::_String_base_types<char,std::allocator<char> > >::_Mysize
PUBLIC	?select_on_container_copy_construction@?$_Wrap_alloc@V?$allocator@D@std@@@std@@QEBA?AU12@U_Nil@2@@Z ; std::_Wrap_alloc<std::allocator<char> >::select_on_container_copy_construction
PUBLIC	??1_Bxty@?$_String_val@U?$_Simple_types@D@std@@@std@@QEAA@XZ ; std::_String_val<std::_Simple_types<char> >::_Bxty::~_Bxty
PUBLIC	??0sentry@?$basic_ostream@DU?$char_traits@D@std@@@std@@QEAA@AEAV12@@Z ; std::basic_ostream<char,std::char_traits<char> >::sentry::sentry
PUBLIC	??1sentry@?$basic_ostream@DU?$char_traits@D@std@@@std@@QEAA@XZ ; std::basic_ostream<char,std::char_traits<char> >::sentry::~sentry
PUBLIC	??Bsentry@?$basic_ostream@DU?$char_traits@D@std@@@std@@QEBA_NXZ ; std::basic_ostream<char,std::char_traits<char> >::sentry::operator bool
PUBLIC	??1_Sentry_base@?$basic_istream@DU?$char_traits@D@std@@@std@@QEAA@XZ ; std::basic_istream<char,std::char_traits<char> >::_Sentry_base::~_Sentry_base
PUBLIC	??0sentry@?$basic_istream@DU?$char_traits@D@std@@@std@@QEAA@AEAV12@_N@Z ; std::basic_istream<char,std::char_traits<char> >::sentry::sentry
PUBLIC	??Bsentry@?$basic_istream@DU?$char_traits@D@std@@@std@@QEBA_NXZ ; std::basic_istream<char,std::char_traits<char> >::sentry::operator bool
PUBLIC	?size@?$vector@V?$basic_string@DU?$char_traits@D@std@@V?$allocator@D@2@@std@@V?$allocator@V?$basic_string@DU?$char_traits@D@std@@V?$allocator@D@2@@std@@@2@@std@@QEBA_KXZ ; std::vector<std::basic_string<char,std::char_traits<char>,std::allocator<char> >,std::allocator<std::basic_string<char,std::char_traits<char>,std::allocator<char> > > >::size
PUBLIC	?_Pop_back_n@?$vector@V?$basic_string@DU?$char_traits@D@std@@V?$allocator@D@2@@std@@V?$allocator@V?$basic_string@DU?$char_traits@D@std@@V?$allocator@D@2@@std@@@2@@std@@QEAAX_K@Z ; std::vector<std::basic_string<char,std::char_traits<char>,std::allocator<char> >,std::allocator<std::basic_string<char,std::char_traits<char>,std::allocator<char> > > >::_Pop_back_n
PUBLIC	?_Reserve@?$vector@V?$basic_string@DU?$char_traits@D@std@@V?$allocator@D@2@@std@@V?$allocator@V?$basic_string@DU?$char_traits@D@std@@V?$allocator@D@2@@std@@@2@@std@@IEAAX_K@Z ; std::vector<std::basic_string<char,std::char_traits<char>,std::allocator<char> >,std::allocator<std::basic_string<char,std::char_traits<char>,std::allocator<char> > > >::_Reserve
PUBLIC	?_Tidy@?$vector@V?$basic_string@DU?$char_traits@D@std@@V?$allocator@D@2@@std@@V?$allocator@V?$basic_string@DU?$char_traits@D@std@@V?$allocator@D@2@@std@@@2@@std@@IEAAXXZ ; std::vector<std::basic_string<char,std::char_traits<char>,std::allocator<char> >,std::allocator<std::basic_string<char,std::char_traits<char>,std::allocator<char> > > >::_Tidy
PUBLIC	?_Getal@?$_Vector_alloc@U?$_Vec_base_types@V?$basic_string@DU?$char_traits@D@std@@V?$allocator@D@2@@std@@V?$allocator@V?$basic_string@DU?$char_traits@D@std@@V?$allocator@D@2@@std@@@2@@std@@@std@@QEAAAEAU?$_Wrap_alloc@V?$allocator@V?$basic_string@DU?$char_traits@D@std@@V?$allocator@D@2@@std@@@std@@@2@XZ ; std::_Vector_alloc<std::_Vec_base_types<std::basic_string<char,std::char_traits<char>,std::allocator<char> >,std::allocator<std::basic_string<char,std::char_traits<char>,std::allocator<char> > > > >::_Getal
PUBLIC	?_Get_data@?$_Vector_alloc@U?$_Vec_base_types@V?$basic_string@DU?$char_traits@D@std@@V?$allocator@D@2@@std@@V?$allocator@V?$basic_string@DU?$char_traits@D@std@@V?$allocator@D@2@@std@@@2@@std@@@std@@QEAAAEAV?$_Vector_val@U?$_Simple_types@V?$basic_string@DU?$char_traits@D@std@@V?$allocator@D@2@@std@@@std@@@2@XZ ; std::_Vector_alloc<std::_Vec_base_types<std::basic_string<char,std::char_traits<char>,std::allocator<char> >,std::allocator<std::basic_string<char,std::char_traits<char>,std::allocator<char> > > > >::_Get_data
PUBLIC	?_Get_data@?$_Vector_alloc@U?$_Vec_base_types@V?$basic_string@DU?$char_traits@D@std@@V?$allocator@D@2@@std@@V?$allocator@V?$basic_string@DU?$char_traits@D@std@@V?$allocator@D@2@@std@@@2@@std@@@std@@QEBAAEBV?$_Vector_val@U?$_Simple_types@V?$basic_string@DU?$char_traits@D@std@@V?$allocator@D@2@@std@@@std@@@2@XZ ; std::_Vector_alloc<std::_Vec_base_types<std::basic_string<char,std::char_traits<char>,std::allocator<char> >,std::allocator<std::basic_string<char,std::char_traits<char>,std::allocator<char> > > > >::_Get_data
PUBLIC	?_Myfirst@?$_Vector_alloc@U?$_Vec_base_types@V?$basic_string@DU?$char_traits@D@std@@V?$allocator@D@2@@std@@V?$allocator@V?$basic_string@DU?$char_traits@D@std@@V?$allocator@D@2@@std@@@2@@std@@@std@@QEAAAEAPEAV?$basic_string@DU?$char_traits@D@std@@V?$allocator@D@2@@2@XZ ; std::_Vector_alloc<std::_Vec_base_types<std::basic_string<char,std::char_traits<char>,std::allocator<char> >,std::allocator<std::basic_string<char,std::char_traits<char>,std::allocator<char> > > > >::_Myfirst
PUBLIC	?_Myfirst@?$_Vector_alloc@U?$_Vec_base_types@V?$basic_string@DU?$char_traits@D@std@@V?$allocator@D@2@@std@@V?$allocator@V?$basic_string@DU?$char_traits@D@std@@V?$allocator@D@2@@std@@@2@@std@@@std@@QEBAAEBQEAV?$basic_string@DU?$char_traits@D@std@@V?$allocator@D@2@@2@XZ ; std::_Vector_alloc<std::_Vec_base_types<std::basic_string<char,std::char_traits<char>,std::allocator<char> >,std::allocator<std::basic_string<char,std::char_traits<char>,std::allocator<char> > > > >::_Myfirst
PUBLIC	?_Mylast@?$_Vector_alloc@U?$_Vec_base_types@V?$basic_string@DU?$char_traits@D@std@@V?$allocator@D@2@@std@@V?$allocator@V?$basic_string@DU?$char_traits@D@std@@V?$allocator@D@2@@std@@@2@@std@@@std@@QEAAAEAPEAV?$basic_string@DU?$char_traits@D@std@@V?$allocator@D@2@@2@XZ ; std::_Vector_alloc<std::_Vec_base_types<std::basic_string<char,std::char_traits<char>,std::allocator<char> >,std::allocator<std::basic_string<char,std::char_traits<char>,std::allocator<char> > > > >::_Mylast
PUBLIC	?_Mylast@?$_Vector_alloc@U?$_Vec_base_types@V?$basic_string@DU?$char_traits@D@std@@V?$allocator@D@2@@std@@V?$allocator@V?$basic_string@DU?$char_traits@D@std@@V?$allocator@D@2@@std@@@2@@std@@@std@@QEBAAEBQEAV?$basic_string@DU?$char_traits@D@std@@V?$allocator@D@2@@2@XZ ; std::_Vector_alloc<std::_Vec_base_types<std::basic_string<char,std::char_traits<char>,std::allocator<char> >,std::allocator<std::basic_string<char,std::char_traits<char>,std::allocator<char> > > > >::_Mylast
PUBLIC	??0?$_Vector_iterator@V?$_Vector_val@U?$_Simple_types@V?$basic_string@DU?$char_traits@D@std@@V?$allocator@D@2@@std@@@std@@@std@@@std@@QEAA@PEAV?$basic_string@DU?$char_traits@D@std@@V?$allocator@D@2@@1@PEBU_Container_base0@1@@Z ; std::_Vector_iterator<std::_Vector_val<std::_Simple_types<std::basic_string<char,std::char_traits<char>,std::allocator<char> > > > >::_Vector_iterator<std::_Vector_val<std::_Simple_types<std::basic_string<char,std::char_traits<char>,std::allocator<char> > > > >
PUBLIC	??Y?$_Vector_iterator@V?$_Vector_val@U?$_Simple_types@V?$basic_string@DU?$char_traits@D@std@@V?$allocator@D@2@@std@@@std@@@std@@@std@@QEAAAEAV01@_J@Z ; std::_Vector_iterator<std::_Vector_val<std::_Simple_types<std::basic_string<char,std::char_traits<char>,std::allocator<char> > > > >::operator+=
PUBLIC	??0?$_Vector_const_iterator@V?$_Vector_val@U?$_Simple_types@V?$basic_string@DU?$char_traits@D@std@@V?$allocator@D@2@@std@@@std@@@std@@@std@@QEAA@PEAV?$basic_string@DU?$char_traits@D@std@@V?$allocator@D@2@@1@PEBU_Container_base0@1@@Z ; std::_Vector_const_iterator<std::_Vector_val<std::_Simple_types<std::basic_string<char,std::char_traits<char>,std::allocator<char> > > > >::_Vector_const_iterator<std::_Vector_val<std::_Simple_types<std::basic_string<char,std::char_traits<char>,std::allocator<char> > > > >
PUBLIC	??8?$_Vector_const_iterator@V?$_Vector_val@U?$_Simple_types@V?$basic_string@DU?$char_traits@D@std@@V?$allocator@D@2@@std@@@std@@@std@@@std@@QEBA_NAEBV01@@Z ; std::_Vector_const_iterator<std::_Vector_val<std::_Simple_types<std::basic_string<char,std::char_traits<char>,std::allocator<char> > > > >::operator==
PUBLIC	?begin@?$initializer_list@V?$basic_string@DU?$char_traits@D@std@@V?$allocator@D@2@@std@@@std@@QEBAPEBV?$basic_string@DU?$char_traits@D@std@@V?$allocator@D@2@@2@XZ ; std::initializer_list<std::basic_string<char,std::char_traits<char>,std::allocator<char> > >::begin
PUBLIC	?end@?$initializer_list@V?$basic_string@DU?$char_traits@D@std@@V?$allocator@D@2@@std@@@std@@QEBAPEBV?$basic_string@DU?$char_traits@D@std@@V?$allocator@D@2@@2@XZ ; std::initializer_list<std::basic_string<char,std::char_traits<char>,std::allocator<char> > >::end
PUBLIC	?_Tidy@?$vector@PEAVPerson@@V?$allocator@PEAVPerson@@@std@@@std@@IEAAXXZ ; std::vector<Person * __ptr64,std::allocator<Person * __ptr64> >::_Tidy
PUBLIC	?_Tidy@?$vector@PEAVAddress@@V?$allocator@PEAVAddress@@@std@@@std@@IEAAXXZ ; std::vector<Address * __ptr64,std::allocator<Address * __ptr64> >::_Tidy
PUBLIC	?_Get_data@?$_Vector_alloc@U?$_Vec_base_types@PEAVPerson@@V?$allocator@PEAVPerson@@@std@@@std@@@std@@QEAAAEAV?$_Vector_val@U?$_Simple_types@PEAVPerson@@@std@@@2@XZ ; std::_Vector_alloc<std::_Vec_base_types<Person * __ptr64,std::allocator<Person * __ptr64> > >::_Get_data
PUBLIC	?_Get_data@?$_Vector_alloc@U?$_Vec_base_types@PEAVPerson@@V?$allocator@PEAVPerson@@@std@@@std@@@std@@QEBAAEBV?$_Vector_val@U?$_Simple_types@PEAVPerson@@@std@@@2@XZ ; std::_Vector_alloc<std::_Vec_base_types<Person * __ptr64,std::allocator<Person * __ptr64> > >::_Get_data
PUBLIC	?_Myfirst@?$_Vector_alloc@U?$_Vec_base_types@PEAVPerson@@V?$allocator@PEAVPerson@@@std@@@std@@@std@@QEAAAEAPEAPEAVPerson@@XZ ; std::_Vector_alloc<std::_Vec_base_types<Person * __ptr64,std::allocator<Person * __ptr64> > >::_Myfirst
PUBLIC	?_Myfirst@?$_Vector_alloc@U?$_Vec_base_types@PEAVPerson@@V?$allocator@PEAVPerson@@@std@@@std@@@std@@QEBAAEBQEAPEAVPerson@@XZ ; std::_Vector_alloc<std::_Vec_base_types<Person * __ptr64,std::allocator<Person * __ptr64> > >::_Myfirst
PUBLIC	?_Mylast@?$_Vector_alloc@U?$_Vec_base_types@PEAVPerson@@V?$allocator@PEAVPerson@@@std@@@std@@@std@@QEAAAEAPEAPEAVPerson@@XZ ; std::_Vector_alloc<std::_Vec_base_types<Person * __ptr64,std::allocator<Person * __ptr64> > >::_Mylast
PUBLIC	?_Mylast@?$_Vector_alloc@U?$_Vec_base_types@PEAVPerson@@V?$allocator@PEAVPerson@@@std@@@std@@@std@@QEBAAEBQEAPEAVPerson@@XZ ; std::_Vector_alloc<std::_Vec_base_types<Person * __ptr64,std::allocator<Person * __ptr64> > >::_Mylast
PUBLIC	??0?$_Vector_iterator@V?$_Vector_val@U?$_Simple_types@PEAVPerson@@@std@@@std@@@std@@QEAA@PEAPEAVPerson@@PEBU_Container_base0@1@@Z ; std::_Vector_iterator<std::_Vector_val<std::_Simple_types<Person * __ptr64> > >::_Vector_iterator<std::_Vector_val<std::_Simple_types<Person * __ptr64> > >
PUBLIC	??0?$_Vector_const_iterator@V?$_Vector_val@U?$_Simple_types@PEAVPerson@@@std@@@std@@@std@@QEAA@PEAPEAVPerson@@PEBU_Container_base0@1@@Z ; std::_Vector_const_iterator<std::_Vector_val<std::_Simple_types<Person * __ptr64> > >::_Vector_const_iterator<std::_Vector_val<std::_Simple_types<Person * __ptr64> > >
PUBLIC	??E?$_Vector_const_iterator@V?$_Vector_val@U?$_Simple_types@PEAVPerson@@@std@@@std@@@std@@QEAAAEAV01@XZ ; std::_Vector_const_iterator<std::_Vector_val<std::_Simple_types<Person * __ptr64> > >::operator++
PUBLIC	??8?$_Vector_const_iterator@V?$_Vector_val@U?$_Simple_types@PEAVPerson@@@std@@@std@@@std@@QEBA_NAEBV01@@Z ; std::_Vector_const_iterator<std::_Vector_val<std::_Simple_types<Person * __ptr64> > >::operator==
PUBLIC	?begin@?$initializer_list@PEAVPerson@@@std@@QEBAPEBQEAVPerson@@XZ ; std::initializer_list<Person * __ptr64>::begin
PUBLIC	?end@?$initializer_list@PEAVPerson@@@std@@QEBAPEBQEAVPerson@@XZ ; std::initializer_list<Person * __ptr64>::end
PUBLIC	?_Get_data@?$_Vector_alloc@U?$_Vec_base_types@PEAVAddress@@V?$allocator@PEAVAddress@@@std@@@std@@@std@@QEAAAEAV?$_Vector_val@U?$_Simple_types@PEAVAddress@@@std@@@2@XZ ; std::_Vector_alloc<std::_Vec_base_types<Address * __ptr64,std::allocator<Address * __ptr64> > >::_Get_data
PUBLIC	?_Get_data@?$_Vector_alloc@U?$_Vec_base_types@PEAVAddress@@V?$allocator@PEAVAddress@@@std@@@std@@@std@@QEBAAEBV?$_Vector_val@U?$_Simple_types@PEAVAddress@@@std@@@2@XZ ; std::_Vector_alloc<std::_Vec_base_types<Address * __ptr64,std::allocator<Address * __ptr64> > >::_Get_data
PUBLIC	?_Myfirst@?$_Vector_alloc@U?$_Vec_base_types@PEAVAddress@@V?$allocator@PEAVAddress@@@std@@@std@@@std@@QEAAAEAPEAPEAVAddress@@XZ ; std::_Vector_alloc<std::_Vec_base_types<Address * __ptr64,std::allocator<Address * __ptr64> > >::_Myfirst
PUBLIC	?_Myfirst@?$_Vector_alloc@U?$_Vec_base_types@PEAVAddress@@V?$allocator@PEAVAddress@@@std@@@std@@@std@@QEBAAEBQEAPEAVAddress@@XZ ; std::_Vector_alloc<std::_Vec_base_types<Address * __ptr64,std::allocator<Address * __ptr64> > >::_Myfirst
PUBLIC	?_Mylast@?$_Vector_alloc@U?$_Vec_base_types@PEAVAddress@@V?$allocator@PEAVAddress@@@std@@@std@@@std@@QEBAAEBQEAPEAVAddress@@XZ ; std::_Vector_alloc<std::_Vec_base_types<Address * __ptr64,std::allocator<Address * __ptr64> > >::_Mylast
PUBLIC	??0?$_Vector_iterator@V?$_Vector_val@U?$_Simple_types@PEAVAddress@@@std@@@std@@@std@@QEAA@PEAPEAVAddress@@PEBU_Container_base0@1@@Z ; std::_Vector_iterator<std::_Vector_val<std::_Simple_types<Address * __ptr64> > >::_Vector_iterator<std::_Vector_val<std::_Simple_types<Address * __ptr64> > >
PUBLIC	??0?$_Vector_const_iterator@V?$_Vector_val@U?$_Simple_types@PEAVAddress@@@std@@@std@@@std@@QEAA@PEAPEAVAddress@@PEBU_Container_base0@1@@Z ; std::_Vector_const_iterator<std::_Vector_val<std::_Simple_types<Address * __ptr64> > >::_Vector_const_iterator<std::_Vector_val<std::_Simple_types<Address * __ptr64> > >
PUBLIC	??E?$_Vector_const_iterator@V?$_Vector_val@U?$_Simple_types@PEAVAddress@@@std@@@std@@@std@@QEAAAEAV01@XZ ; std::_Vector_const_iterator<std::_Vector_val<std::_Simple_types<Address * __ptr64> > >::operator++
PUBLIC	??8?$_Vector_const_iterator@V?$_Vector_val@U?$_Simple_types@PEAVAddress@@@std@@@std@@@std@@QEBA_NAEBV01@@Z ; std::_Vector_const_iterator<std::_Vector_val<std::_Simple_types<Address * __ptr64> > >::operator==
PUBLIC	?begin@?$initializer_list@PEAVAddress@@@std@@QEBAPEBQEAVAddress@@XZ ; std::initializer_list<Address * __ptr64>::begin
PUBLIC	?end@?$initializer_list@PEAVAddress@@@std@@QEBAPEBQEAVAddress@@XZ ; std::initializer_list<Address * __ptr64>::end
PUBLIC	?_Tidy@?$vector@HV?$allocator@H@std@@@std@@IEAAXXZ ; std::vector<int,std::allocator<int> >::_Tidy
PUBLIC	?_Get_data@?$_Vector_alloc@U?$_Vec_base_types@HV?$allocator@H@std@@@std@@@std@@QEAAAEAV?$_Vector_val@U?$_Simple_types@H@std@@@2@XZ ; std::_Vector_alloc<std::_Vec_base_types<int,std::allocator<int> > >::_Get_data
PUBLIC	?_Myfirst@?$_Vector_alloc@U?$_Vec_base_types@HV?$allocator@H@std@@@std@@@std@@QEAAAEAPEAHXZ ; std::_Vector_alloc<std::_Vec_base_types<int,std::allocator<int> > >::_Myfirst
PUBLIC	?_Myfirst@?$_Vector_alloc@U?$_Vec_base_types@HV?$allocator@H@std@@@std@@@std@@QEBAAEBQEAHXZ ; std::_Vector_alloc<std::_Vec_base_types<int,std::allocator<int> > >::_Myfirst
PUBLIC	?_Mylast@?$_Vector_alloc@U?$_Vec_base_types@HV?$allocator@H@std@@@std@@@std@@QEAAAEAPEAHXZ ; std::_Vector_alloc<std::_Vec_base_types<int,std::allocator<int> > >::_Mylast
PUBLIC	?_Mylast@?$_Vector_alloc@U?$_Vec_base_types@HV?$allocator@H@std@@@std@@@std@@QEBAAEBQEAHXZ ; std::_Vector_alloc<std::_Vec_base_types<int,std::allocator<int> > >::_Mylast
PUBLIC	?_Myend@?$_Vector_alloc@U?$_Vec_base_types@HV?$allocator@H@std@@@std@@@std@@QEBAAEBQEAHXZ ; std::_Vector_alloc<std::_Vec_base_types<int,std::allocator<int> > >::_Myend
PUBLIC	??0?$_Vector_iterator@V?$_Vector_val@U?$_Simple_types@H@std@@@std@@@std@@QEAA@PEAHPEBU_Container_base0@1@@Z ; std::_Vector_iterator<std::_Vector_val<std::_Simple_types<int> > >::_Vector_iterator<std::_Vector_val<std::_Simple_types<int> > >
PUBLIC	??D?$_Vector_const_iterator@V?$_Vector_val@U?$_Simple_types@H@std@@@std@@@std@@QEBAAEBHXZ ; std::_Vector_const_iterator<std::_Vector_val<std::_Simple_types<int> > >::operator*
PUBLIC	??E?$_Vector_const_iterator@V?$_Vector_val@U?$_Simple_types@H@std@@@std@@@std@@QEAAAEAV01@XZ ; std::_Vector_const_iterator<std::_Vector_val<std::_Simple_types<int> > >::operator++
PUBLIC	??8?$_Vector_const_iterator@V?$_Vector_val@U?$_Simple_types@H@std@@@std@@@std@@QEBA_NAEBV01@@Z ; std::_Vector_const_iterator<std::_Vector_val<std::_Simple_types<int> > >::operator==
PUBLIC	?begin@?$initializer_list@H@std@@QEBAPEBHXZ	; std::initializer_list<int>::begin
PUBLIC	?end@?$initializer_list@H@std@@QEBAPEBHXZ	; std::initializer_list<int>::end
PUBLIC	??1?$_String_val@U?$_Simple_types@D@std@@@std@@QEAA@XZ ; std::_String_val<std::_Simple_types<char> >::~_String_val<std::_Simple_types<char> >
PUBLIC	??1?$_Compressed_pair@U?$_Wrap_alloc@V?$allocator@D@std@@@std@@V?$_String_val@U?$_Simple_types@D@std@@@2@$00@std@@QEAA@XZ ; std::_Compressed_pair<std::_Wrap_alloc<std::allocator<char> >,std::_String_val<std::_Simple_types<char> >,1>::~_Compressed_pair<std::_Wrap_alloc<std::allocator<char> >,std::_String_val<std::_Simple_types<char> >,1>
PUBLIC	??1sentry@?$basic_istream@DU?$char_traits@D@std@@@std@@QEAA@XZ ; std::basic_istream<char,std::char_traits<char> >::sentry::~sentry
PUBLIC	??1?$_String_alloc@U?$_String_base_types@DV?$allocator@D@std@@@std@@@std@@QEAA@XZ ; std::_String_alloc<std::_String_base_types<char,std::allocator<char> > >::~_String_alloc<std::_String_base_types<char,std::allocator<char> > >
PUBLIC	??0?$basic_string@DU?$char_traits@D@std@@V?$allocator@D@2@@std@@QEAA@AEBV01@@Z ; std::basic_string<char,std::char_traits<char>,std::allocator<char> >::basic_string<char,std::char_traits<char>,std::allocator<char> >
PUBLIC	??0?$basic_string@DU?$char_traits@D@std@@V?$allocator@D@2@@std@@QEAA@XZ ; std::basic_string<char,std::char_traits<char>,std::allocator<char> >::basic_string<char,std::char_traits<char>,std::allocator<char> >
PUBLIC	??0?$basic_string@DU?$char_traits@D@std@@V?$allocator@D@2@@std@@QEAA@PEBD@Z ; std::basic_string<char,std::char_traits<char>,std::allocator<char> >::basic_string<char,std::char_traits<char>,std::allocator<char> >
PUBLIC	??0?$basic_string@DU?$char_traits@D@std@@V?$allocator@D@2@@std@@QEAA@$$QEAV01@@Z ; std::basic_string<char,std::char_traits<char>,std::allocator<char> >::basic_string<char,std::char_traits<char>,std::allocator<char> >
PUBLIC	??1?$basic_string@DU?$char_traits@D@std@@V?$allocator@D@2@@std@@QEAA@XZ ; std::basic_string<char,std::char_traits<char>,std::allocator<char> >::~basic_string<char,std::char_traits<char>,std::allocator<char> >
PUBLIC	?c_str@?$basic_string@DU?$char_traits@D@std@@V?$allocator@D@2@@std@@QEBAPEBDXZ ; std::basic_string<char,std::char_traits<char>,std::allocator<char> >::c_str
PUBLIC	?compare@?$basic_string@DU?$char_traits@D@std@@V?$allocator@D@2@@std@@QEBAHAEBV12@@Z ; std::basic_string<char,std::char_traits<char>,std::allocator<char> >::compare
PUBLIC	??0?$allocator@V?$basic_string@DU?$char_traits@D@std@@V?$allocator@D@2@@std@@@std@@QEAA@XZ ; std::allocator<std::basic_string<char,std::char_traits<char>,std::allocator<char> > >::allocator<std::basic_string<char,std::char_traits<char>,std::allocator<char> > >
PUBLIC	?insert@?$vector@V?$basic_string@DU?$char_traits@D@std@@V?$allocator@D@2@@std@@V?$allocator@V?$basic_string@DU?$char_traits@D@std@@V?$allocator@D@2@@std@@@2@@std@@QEAA?AV?$_Vector_iterator@V?$_Vector_val@U?$_Simple_types@V?$basic_string@DU?$char_traits@D@std@@V?$allocator@D@2@@std@@@std@@@std@@@2@V?$_Vector_const_iterator@V?$_Vector_val@U?$_Simple_types@V?$basic_string@DU?$char_traits@D@std@@V?$allocator@D@2@@std@@@std@@@std@@@2@$$QEAV?$basic_string@DU?$char_traits@D@std@@V?$allocator@D@2@@2@@Z ; std::vector<std::basic_string<char,std::char_traits<char>,std::allocator<char> >,std::allocator<std::basic_string<char,std::char_traits<char>,std::allocator<char> > > >::insert
PUBLIC	??0?$vector@V?$basic_string@DU?$char_traits@D@std@@V?$allocator@D@2@@std@@V?$allocator@V?$basic_string@DU?$char_traits@D@std@@V?$allocator@D@2@@std@@@2@@std@@QEAA@V?$initializer_list@V?$basic_string@DU?$char_traits@D@std@@V?$allocator@D@2@@std@@@1@AEBV?$allocator@V?$basic_string@DU?$char_traits@D@std@@V?$allocator@D@2@@std@@@1@@Z ; std::vector<std::basic_string<char,std::char_traits<char>,std::allocator<char> >,std::allocator<std::basic_string<char,std::char_traits<char>,std::allocator<char> > > >::vector<std::basic_string<char,std::char_traits<char>,std::allocator<char> >,std::allocator<std::basic_string<char,std::char_traits<char>,std::allocator<char> > > >
PUBLIC	??1?$vector@V?$basic_string@DU?$char_traits@D@std@@V?$allocator@D@2@@std@@V?$allocator@V?$basic_string@DU?$char_traits@D@std@@V?$allocator@D@2@@std@@@2@@std@@QEAA@XZ ; std::vector<std::basic_string<char,std::char_traits<char>,std::allocator<char> >,std::allocator<std::basic_string<char,std::char_traits<char>,std::allocator<char> > > >::~vector<std::basic_string<char,std::char_traits<char>,std::allocator<char> >,std::allocator<std::basic_string<char,std::char_traits<char>,std::allocator<char> > > >
PUBLIC	?begin@?$vector@V?$basic_string@DU?$char_traits@D@std@@V?$allocator@D@2@@std@@V?$allocator@V?$basic_string@DU?$char_traits@D@std@@V?$allocator@D@2@@std@@@2@@std@@QEAA?AV?$_Vector_iterator@V?$_Vector_val@U?$_Simple_types@V?$basic_string@DU?$char_traits@D@std@@V?$allocator@D@2@@std@@@std@@@std@@@2@XZ ; std::vector<std::basic_string<char,std::char_traits<char>,std::allocator<char> >,std::allocator<std::basic_string<char,std::char_traits<char>,std::allocator<char> > > >::begin
PUBLIC	?begin@?$vector@V?$basic_string@DU?$char_traits@D@std@@V?$allocator@D@2@@std@@V?$allocator@V?$basic_string@DU?$char_traits@D@std@@V?$allocator@D@2@@std@@@2@@std@@QEBA?AV?$_Vector_const_iterator@V?$_Vector_val@U?$_Simple_types@V?$basic_string@DU?$char_traits@D@std@@V?$allocator@D@2@@std@@@std@@@std@@@2@XZ ; std::vector<std::basic_string<char,std::char_traits<char>,std::allocator<char> >,std::allocator<std::basic_string<char,std::char_traits<char>,std::allocator<char> > > >::begin
PUBLIC	?end@?$vector@V?$basic_string@DU?$char_traits@D@std@@V?$allocator@D@2@@std@@V?$allocator@V?$basic_string@DU?$char_traits@D@std@@V?$allocator@D@2@@std@@@2@@std@@QEBA?AV?$_Vector_const_iterator@V?$_Vector_val@U?$_Simple_types@V?$basic_string@DU?$char_traits@D@std@@V?$allocator@D@2@@std@@@std@@@std@@@2@XZ ; std::vector<std::basic_string<char,std::char_traits<char>,std::allocator<char> >,std::allocator<std::basic_string<char,std::char_traits<char>,std::allocator<char> > > >::end
PUBLIC	?resize@?$vector@V?$basic_string@DU?$char_traits@D@std@@V?$allocator@D@2@@std@@V?$allocator@V?$basic_string@DU?$char_traits@D@std@@V?$allocator@D@2@@std@@@2@@std@@QEAAX_K@Z ; std::vector<std::basic_string<char,std::char_traits<char>,std::allocator<char> >,std::allocator<std::basic_string<char,std::char_traits<char>,std::allocator<char> > > >::resize
PUBLIC	??A?$vector@V?$basic_string@DU?$char_traits@D@std@@V?$allocator@D@2@@std@@V?$allocator@V?$basic_string@DU?$char_traits@D@std@@V?$allocator@D@2@@std@@@2@@std@@QEAAAEAV?$basic_string@DU?$char_traits@D@std@@V?$allocator@D@2@@1@_K@Z ; std::vector<std::basic_string<char,std::char_traits<char>,std::allocator<char> >,std::allocator<std::basic_string<char,std::char_traits<char>,std::allocator<char> > > >::operator[]
PUBLIC	??H?$_Vector_iterator@V?$_Vector_val@U?$_Simple_types@V?$basic_string@DU?$char_traits@D@std@@V?$allocator@D@2@@std@@@std@@@std@@@std@@QEBA?AV01@_J@Z ; std::_Vector_iterator<std::_Vector_val<std::_Simple_types<std::basic_string<char,std::char_traits<char>,std::allocator<char> > > > >::operator+
PUBLIC	??D?$_Vector_const_iterator@V?$_Vector_val@U?$_Simple_types@V?$basic_string@DU?$char_traits@D@std@@V?$allocator@D@2@@std@@@std@@@std@@@std@@QEBAAEBV?$basic_string@DU?$char_traits@D@std@@V?$allocator@D@2@@1@XZ ; std::_Vector_const_iterator<std::_Vector_val<std::_Simple_types<std::basic_string<char,std::char_traits<char>,std::allocator<char> > > > >::operator*
PUBLIC	??E?$_Vector_const_iterator@V?$_Vector_val@U?$_Simple_types@V?$basic_string@DU?$char_traits@D@std@@V?$allocator@D@2@@std@@@std@@@std@@@std@@QEAAAEAV01@XZ ; std::_Vector_const_iterator<std::_Vector_val<std::_Simple_types<std::basic_string<char,std::char_traits<char>,std::allocator<char> > > > >::operator++
PUBLIC	??9?$_Vector_const_iterator@V?$_Vector_val@U?$_Simple_types@V?$basic_string@DU?$char_traits@D@std@@V?$allocator@D@2@@std@@@std@@@std@@@std@@QEBA_NAEBV01@@Z ; std::_Vector_const_iterator<std::_Vector_val<std::_Simple_types<std::basic_string<char,std::char_traits<char>,std::allocator<char> > > > >::operator!=
PUBLIC	??0?$initializer_list@V?$basic_string@DU?$char_traits@D@std@@V?$allocator@D@2@@std@@@std@@QEAA@PEBV?$basic_string@DU?$char_traits@D@std@@V?$allocator@D@2@@1@0@Z ; std::initializer_list<std::basic_string<char,std::char_traits<char>,std::allocator<char> > >::initializer_list<std::basic_string<char,std::char_traits<char>,std::allocator<char> > >
PUBLIC	??0?$allocator@PEAVPerson@@@std@@QEAA@XZ	; std::allocator<Person * __ptr64>::allocator<Person * __ptr64>
PUBLIC	??0?$vector@PEAVPerson@@V?$allocator@PEAVPerson@@@std@@@std@@QEAA@V?$initializer_list@PEAVPerson@@@1@AEBV?$allocator@PEAVPerson@@@1@@Z ; std::vector<Person * __ptr64,std::allocator<Person * __ptr64> >::vector<Person * __ptr64,std::allocator<Person * __ptr64> >
PUBLIC	??1?$vector@PEAVPerson@@V?$allocator@PEAVPerson@@@std@@@std@@QEAA@XZ ; std::vector<Person * __ptr64,std::allocator<Person * __ptr64> >::~vector<Person * __ptr64,std::allocator<Person * __ptr64> >
PUBLIC	?begin@?$vector@PEAVPerson@@V?$allocator@PEAVPerson@@@std@@@std@@QEAA?AV?$_Vector_iterator@V?$_Vector_val@U?$_Simple_types@PEAVPerson@@@std@@@std@@@2@XZ ; std::vector<Person * __ptr64,std::allocator<Person * __ptr64> >::begin
PUBLIC	?begin@?$vector@PEAVPerson@@V?$allocator@PEAVPerson@@@std@@@std@@QEBA?AV?$_Vector_const_iterator@V?$_Vector_val@U?$_Simple_types@PEAVPerson@@@std@@@std@@@2@XZ ; std::vector<Person * __ptr64,std::allocator<Person * __ptr64> >::begin
PUBLIC	?end@?$vector@PEAVPerson@@V?$allocator@PEAVPerson@@@std@@@std@@QEAA?AV?$_Vector_iterator@V?$_Vector_val@U?$_Simple_types@PEAVPerson@@@std@@@std@@@2@XZ ; std::vector<Person * __ptr64,std::allocator<Person * __ptr64> >::end
PUBLIC	?end@?$vector@PEAVPerson@@V?$allocator@PEAVPerson@@@std@@@std@@QEBA?AV?$_Vector_const_iterator@V?$_Vector_val@U?$_Simple_types@PEAVPerson@@@std@@@std@@@2@XZ ; std::vector<Person * __ptr64,std::allocator<Person * __ptr64> >::end
PUBLIC	??0?$allocator@PEAVAddress@@@std@@QEAA@XZ	; std::allocator<Address * __ptr64>::allocator<Address * __ptr64>
PUBLIC	?insert@?$vector@PEAVAddress@@V?$allocator@PEAVAddress@@@std@@@std@@QEAA?AV?$_Vector_iterator@V?$_Vector_val@U?$_Simple_types@PEAVAddress@@@std@@@std@@@2@V?$_Vector_const_iterator@V?$_Vector_val@U?$_Simple_types@PEAVAddress@@@std@@@std@@@2@$$QEAPEAVAddress@@@Z ; std::vector<Address * __ptr64,std::allocator<Address * __ptr64> >::insert
PUBLIC	??0?$vector@PEAVAddress@@V?$allocator@PEAVAddress@@@std@@@std@@QEAA@V?$initializer_list@PEAVAddress@@@1@AEBV?$allocator@PEAVAddress@@@1@@Z ; std::vector<Address * __ptr64,std::allocator<Address * __ptr64> >::vector<Address * __ptr64,std::allocator<Address * __ptr64> >
PUBLIC	??1?$vector@PEAVAddress@@V?$allocator@PEAVAddress@@@std@@@std@@QEAA@XZ ; std::vector<Address * __ptr64,std::allocator<Address * __ptr64> >::~vector<Address * __ptr64,std::allocator<Address * __ptr64> >
PUBLIC	?begin@?$vector@PEAVAddress@@V?$allocator@PEAVAddress@@@std@@@std@@QEAA?AV?$_Vector_iterator@V?$_Vector_val@U?$_Simple_types@PEAVAddress@@@std@@@std@@@2@XZ ; std::vector<Address * __ptr64,std::allocator<Address * __ptr64> >::begin
PUBLIC	?begin@?$vector@PEAVAddress@@V?$allocator@PEAVAddress@@@std@@@std@@QEBA?AV?$_Vector_const_iterator@V?$_Vector_val@U?$_Simple_types@PEAVAddress@@@std@@@std@@@2@XZ ; std::vector<Address * __ptr64,std::allocator<Address * __ptr64> >::begin
PUBLIC	?end@?$vector@PEAVAddress@@V?$allocator@PEAVAddress@@@std@@@std@@QEBA?AV?$_Vector_const_iterator@V?$_Vector_val@U?$_Simple_types@PEAVAddress@@@std@@@std@@@2@XZ ; std::vector<Address * __ptr64,std::allocator<Address * __ptr64> >::end
PUBLIC	??D?$_Vector_iterator@V?$_Vector_val@U?$_Simple_types@PEAVPerson@@@std@@@std@@@std@@QEBAAEAPEAVPerson@@XZ ; std::_Vector_iterator<std::_Vector_val<std::_Simple_types<Person * __ptr64> > >::operator*
PUBLIC	??E?$_Vector_iterator@V?$_Vector_val@U?$_Simple_types@PEAVPerson@@@std@@@std@@@std@@QEAAAEAV01@XZ ; std::_Vector_iterator<std::_Vector_val<std::_Simple_types<Person * __ptr64> > >::operator++
PUBLIC	??D?$_Vector_const_iterator@V?$_Vector_val@U?$_Simple_types@PEAVPerson@@@std@@@std@@@std@@QEBAAEBQEAVPerson@@XZ ; std::_Vector_const_iterator<std::_Vector_val<std::_Simple_types<Person * __ptr64> > >::operator*
PUBLIC	??E?$_Vector_const_iterator@V?$_Vector_val@U?$_Simple_types@PEAVPerson@@@std@@@std@@@std@@QEAA?AV01@H@Z ; std::_Vector_const_iterator<std::_Vector_val<std::_Simple_types<Person * __ptr64> > >::operator++
PUBLIC	??9?$_Vector_const_iterator@V?$_Vector_val@U?$_Simple_types@PEAVPerson@@@std@@@std@@@std@@QEBA_NAEBV01@@Z ; std::_Vector_const_iterator<std::_Vector_val<std::_Simple_types<Person * __ptr64> > >::operator!=
PUBLIC	??0?$initializer_list@PEAVPerson@@@std@@QEAA@PEBQEAVPerson@@0@Z ; std::initializer_list<Person * __ptr64>::initializer_list<Person * __ptr64>
PUBLIC	??D?$_Vector_const_iterator@V?$_Vector_val@U?$_Simple_types@PEAVAddress@@@std@@@std@@@std@@QEBAAEBQEAVAddress@@XZ ; std::_Vector_const_iterator<std::_Vector_val<std::_Simple_types<Address * __ptr64> > >::operator*
PUBLIC	??E?$_Vector_const_iterator@V?$_Vector_val@U?$_Simple_types@PEAVAddress@@@std@@@std@@@std@@QEAA?AV01@H@Z ; std::_Vector_const_iterator<std::_Vector_val<std::_Simple_types<Address * __ptr64> > >::operator++
PUBLIC	??9?$_Vector_const_iterator@V?$_Vector_val@U?$_Simple_types@PEAVAddress@@@std@@@std@@@std@@QEBA_NAEBV01@@Z ; std::_Vector_const_iterator<std::_Vector_val<std::_Simple_types<Address * __ptr64> > >::operator!=
PUBLIC	??0?$initializer_list@PEAVAddress@@@std@@QEAA@PEBQEAVAddress@@0@Z ; std::initializer_list<Address * __ptr64>::initializer_list<Address * __ptr64>
PUBLIC	??0?$allocator@H@std@@QEAA@XZ			; std::allocator<int>::allocator<int>
PUBLIC	??0?$vector@HV?$allocator@H@std@@@std@@QEAA@V?$initializer_list@H@1@AEBV?$allocator@H@1@@Z ; std::vector<int,std::allocator<int> >::vector<int,std::allocator<int> >
PUBLIC	??1?$vector@HV?$allocator@H@std@@@std@@QEAA@XZ	; std::vector<int,std::allocator<int> >::~vector<int,std::allocator<int> >
PUBLIC	?capacity@?$vector@HV?$allocator@H@std@@@std@@QEBA_KXZ ; std::vector<int,std::allocator<int> >::capacity
PUBLIC	?begin@?$vector@HV?$allocator@H@std@@@std@@QEAA?AV?$_Vector_iterator@V?$_Vector_val@U?$_Simple_types@H@std@@@std@@@2@XZ ; std::vector<int,std::allocator<int> >::begin
PUBLIC	?end@?$vector@HV?$allocator@H@std@@@std@@QEAA?AV?$_Vector_iterator@V?$_Vector_val@U?$_Simple_types@H@std@@@std@@@2@XZ ; std::vector<int,std::allocator<int> >::end
PUBLIC	?size@?$vector@HV?$allocator@H@std@@@std@@QEBA_KXZ ; std::vector<int,std::allocator<int> >::size
PUBLIC	??D?$_Vector_iterator@V?$_Vector_val@U?$_Simple_types@H@std@@@std@@@std@@QEBAAEAHXZ ; std::_Vector_iterator<std::_Vector_val<std::_Simple_types<int> > >::operator*
PUBLIC	??E?$_Vector_iterator@V?$_Vector_val@U?$_Simple_types@H@std@@@std@@@std@@QEAAAEAV01@XZ ; std::_Vector_iterator<std::_Vector_val<std::_Simple_types<int> > >::operator++
PUBLIC	??9?$_Vector_const_iterator@V?$_Vector_val@U?$_Simple_types@H@std@@@std@@@std@@QEBA_NAEBV01@@Z ; std::_Vector_const_iterator<std::_Vector_val<std::_Simple_types<int> > >::operator!=
PUBLIC	??0?$initializer_list@H@std@@QEAA@PEBH0@Z	; std::initializer_list<int>::initializer_list<int>
PUBLIC	??0?$bitset@$0BA@@std@@QEAA@XZ			; std::bitset<16>::bitset<16>
PUBLIC	?count@?$bitset@$0BA@@std@@QEBA_KXZ		; std::bitset<16>::count
PUBLIC	?any@?$bitset@$0BA@@std@@QEBA_NXZ		; std::bitset<16>::any
PUBLIC	??4A@@QEAAAEAV0@AEBV0@@Z			; A::operator=
PUBLIC	??4B@@QEAAAEAV0@AEBV0@@Z			; B::operator=
PUBLIC	?__autoclassinit2@?$_Vector_iterator@V?$_Vector_val@U?$_Simple_types@V?$basic_string@DU?$char_traits@D@std@@V?$allocator@D@2@@std@@@std@@@std@@@std@@QEAAX_K@Z ; std::_Vector_iterator<std::_Vector_val<std::_Simple_types<std::basic_string<char,std::char_traits<char>,std::allocator<char> > > > >::__autoclassinit2
PUBLIC	?__autoclassinit2@?$vector@V?$basic_string@DU?$char_traits@D@std@@V?$allocator@D@2@@std@@V?$allocator@V?$basic_string@DU?$char_traits@D@std@@V?$allocator@D@2@@std@@@2@@std@@QEAAX_K@Z ; std::vector<std::basic_string<char,std::char_traits<char>,std::allocator<char> >,std::allocator<std::basic_string<char,std::char_traits<char>,std::allocator<char> > > >::__autoclassinit2
PUBLIC	?__autoclassinit2@?$_Vector_iterator@V?$_Vector_val@U?$_Simple_types@H@std@@@std@@@std@@QEAAX_K@Z ; std::_Vector_iterator<std::_Vector_val<std::_Simple_types<int> > >::__autoclassinit2
PUBLIC	?__autoclassinit2@?$vector@HV?$allocator@H@std@@@std@@QEAAX_K@Z ; std::vector<int,std::allocator<int> >::__autoclassinit2
PUBLIC	?__autoclassinit2@?$_Vector_iterator@V?$_Vector_val@U?$_Simple_types@PEAVPerson@@@std@@@std@@@std@@QEAAX_K@Z ; std::_Vector_iterator<std::_Vector_val<std::_Simple_types<Person * __ptr64> > >::__autoclassinit2
PUBLIC	?__autoclassinit2@?$vector@PEAVPerson@@V?$allocator@PEAVPerson@@@std@@@std@@QEAAX_K@Z ; std::vector<Person * __ptr64,std::allocator<Person * __ptr64> >::__autoclassinit2
PUBLIC	?__autoclassinit2@Person@@QEAAX_K@Z		; Person::__autoclassinit2
PUBLIC	??1Person@@QEAA@XZ				; Person::~Person
PUBLIC	?__autoclassinit2@?$vector@PEAVAddress@@V?$allocator@PEAVAddress@@@std@@@std@@QEAAX_K@Z ; std::vector<Address * __ptr64,std::allocator<Address * __ptr64> >::__autoclassinit2
PUBLIC	??1Address@@QEAA@XZ				; Address::~Address
PUBLIC	main
PUBLIC	?__autoclassinit2@?$_Vector_const_iterator@V?$_Vector_val@U?$_Simple_types@PEAVAddress@@@std@@@std@@@std@@QEAAX_K@Z ; std::_Vector_const_iterator<std::_Vector_val<std::_Simple_types<Address * __ptr64> > >::__autoclassinit2
PUBLIC	?__autoclassinit2@?$_Vector_const_iterator@V?$_Vector_val@U?$_Simple_types@PEAVPerson@@@std@@@std@@@std@@QEAAX_K@Z ; std::_Vector_const_iterator<std::_Vector_val<std::_Simple_types<Person * __ptr64> > >::__autoclassinit2
PUBLIC	?assignObjects@@YAXAEBV?$vector@PEAVPerson@@V?$allocator@PEAVPerson@@@std@@@std@@AEBV?$vector@PEAVAddress@@V?$allocator@PEAVAddress@@@std@@@2@@Z ; assignObjects
PUBLIC	?__autoclassinit2@?$_Vector_const_iterator@V?$_Vector_val@U?$_Simple_types@V?$basic_string@DU?$char_traits@D@std@@V?$allocator@D@2@@std@@@std@@@std@@@std@@QEAAX_K@Z ; std::_Vector_const_iterator<std::_Vector_val<std::_Simple_types<std::basic_string<char,std::char_traits<char>,std::allocator<char> > > > >::__autoclassinit2
PUBLIC	?SearchName@@YAXAEBV?$vector@V?$basic_string@DU?$char_traits@D@std@@V?$allocator@D@2@@std@@V?$allocator@V?$basic_string@DU?$char_traits@D@std@@V?$allocator@D@2@@std@@@2@@std@@@Z ; SearchName
PUBLIC	?printElements@@YAXAEAY04H@Z			; printElements
PUBLIC	?func1@@YAXAEAVA@@@Z				; func1
PUBLIC	?GetName@B@@UEBA?AV?$basic_string@DU?$char_traits@D@std@@V?$allocator@D@2@@std@@XZ ; B::GetName
PUBLIC	??0B@@QEAA@AEBV0@@Z				; B::B
PUBLIC	??0B@@QEAA@HH@Z					; B::B
PUBLIC	??0B@@QEAA@XZ					; B::B
PUBLIC	?GetName@A@@UEBA?AV?$basic_string@DU?$char_traits@D@std@@V?$allocator@D@2@@std@@XZ ; A::GetName
PUBLIC	??0A@@QEAA@H@Z					; A::A
PUBLIC	??0A@@QEAA@XZ					; A::A
PUBLIC	??6@YAAEAV?$basic_ostream@DU?$char_traits@D@std@@@std@@AEAV01@AEBVPerson@@@Z ; operator<<
PUBLIC	?SetAddress@Person@@QEAAXPEAVAddress@@@Z	; Person::SetAddress
PUBLIC	??0Person@@QEAA@_KAEBV?$basic_string@DU?$char_traits@D@std@@V?$allocator@D@2@@std@@1@Z ; Person::Person
PUBLIC	??0Address@@QEAA@_KAEBV?$basic_string@DU?$char_traits@D@std@@V?$allocator@D@2@@std@@@Z ; Address::Address
PUBLIC	?to_string@std@@YA?AV?$basic_string@DU?$char_traits@D@std@@V?$allocator@D@2@@1@H@Z ; std::to_string
PUBLIC	?_Getfacet@locale@std@@QEBAPEBVfacet@12@_K@Z	; std::locale::_Getfacet
PUBLIC	??1locale@std@@QEAA@XZ				; std::locale::~locale
PUBLIC	??1bad_cast@std@@UEAA@XZ			; std::bad_cast::~bad_cast
PUBLIC	??_Gbad_cast@std@@UEAAPEAXI@Z			; std::bad_cast::`scalar deleting destructor'
PUBLIC	??0bad_cast@std@@QEAA@XZ			; std::bad_cast::bad_cast
PUBLIC	?_Deallocate@std@@YAXPEAX_K1@Z			; std::_Deallocate
PUBLIC	?_Allocate@std@@YAPEAX_K0_N@Z			; std::_Allocate
PUBLIC	?_Adopt@_Iterator_base0@std@@QEAAXPEBX@Z	; std::_Iterator_base0::_Adopt
PUBLIC	?_Swap_all@_Container_base0@std@@QEAAXAEAU12@@Z	; std::_Container_base0::_Swap_all
PUBLIC	?_Orphan_all@_Container_base0@std@@QEAAXXZ	; std::_Container_base0::_Orphan_all
PUBLIC	?eof@?$char_traits@D@std@@SAHXZ			; std::char_traits<char>::eof
PUBLIC	?eq_int_type@?$char_traits@D@std@@SA_NAEBH0@Z	; std::char_traits<char>::eq_int_type
PUBLIC	?to_int_type@?$char_traits@D@std@@SAHAEBD@Z	; std::char_traits<char>::to_int_type
PUBLIC	?to_char_type@?$char_traits@D@std@@SADAEBH@Z	; std::char_traits<char>::to_char_type
PUBLIC	?eq@?$char_traits@D@std@@SA_NAEBD0@Z		; std::char_traits<char>::eq
PUBLIC	?assign@?$char_traits@D@std@@SAXAEADAEBD@Z	; std::char_traits<char>::assign
PUBLIC	?assign@?$char_traits@D@std@@SAPEADPEAD_KD@Z	; std::char_traits<char>::assign
PUBLIC	?move@?$char_traits@D@std@@SAPEADPEADPEBD_K@Z	; std::char_traits<char>::move
PUBLIC	?copy@?$char_traits@D@std@@SAPEADPEADPEBD_K@Z	; std::char_traits<char>::copy
PUBLIC	?length@?$char_traits@D@std@@SA_KPEBD@Z		; std::char_traits<char>::length
PUBLIC	?compare@?$char_traits@D@std@@SAHPEBD0_K@Z	; std::char_traits<char>::compare
PUBLIC	??3@YAXPEAX0@Z					; operator delete
PUBLIC	??2@YAPEAX_KPEAX@Z				; operator new
PUBLIC	??_Gexception@std@@UEAAPEAXI@Z			; std::exception::`scalar deleting destructor'
PUBLIC	?what@exception@std@@UEBAPEBDXZ			; std::exception::what
PUBLIC	??1exception@std@@UEAA@XZ			; std::exception::~exception
PUBLIC	??0exception@std@@QEAA@AEBV01@@Z		; std::exception::exception
PUBLIC	??0exception@std@@QEAA@QEBDH@Z			; std::exception::exception
PUBLIC	__xmm@00000004000000030000000200000001
PUBLIC	__xmm@00000006000000030000000600000005
PUBLIC	__xmm@0000000a0000006e0000004b00000032
PUBLIC	__xmm@000000500000000e0000001400000063
EXTRN	??_Eexception@std@@UEAAPEAXI@Z:PROC		; std::exception::`vector deleting destructor'
EXTRN	??_Ebad_cast@std@@UEAAPEAXI@Z:PROC		; std::bad_cast::`vector deleting destructor'
EXTRN	_CxxThrowException:PROC
EXTRN	__CxxFrameHandler3:PROC
EXTRN	__GSHandlerCheck:PROC
EXTRN	__GSHandlerCheck_EH:PROC
EXTRN	__std_terminate:PROC
EXTRN	memcmp:PROC
EXTRN	memcpy:PROC
EXTRN	memset:PROC
EXTRN	__security_cookie:QWORD
EXTRN	_fltused:DWORD
;	COMDAT pdata
pdata	SEGMENT
$pdata$printf DD imagerel $LN8@printf
	DD	imagerel $LN8@printf+85
	DD	imagerel $unwind$printf
pdata	ENDS
;	COMDAT pdata
pdata	SEGMENT
$pdata$_vfprintf_l DD imagerel $LN4@vfprintf_l
	DD	imagerel $LN4@vfprintf_l+68
	DD	imagerel $unwind$_vfprintf_l
pdata	ENDS
;	COMDAT pdata
pdata	SEGMENT
$pdata$??$construct@V?$basic_string@DU?$char_traits@D@std@@V?$allocator@D@2@@std@@AEBV12@@?$allocator@V?$basic_string@DU?$char_traits@D@std@@V?$allocator@D@2@@std@@@std@@QEAAXPEAV?$basic_string@DU?$char_traits@D@std@@V?$allocator@D@2@@1@AEBV21@@Z DD imagerel $LN154@construct
	DD	imagerel $LN154@construct+95
	DD	imagerel $unwind$??$construct@V?$basic_string@DU?$char_traits@D@std@@V?$allocator@D@2@@std@@AEBV12@@?$allocator@V?$basic_string@DU?$char_traits@D@std@@V?$allocator@D@2@@std@@@std@@QEAAXPEAV?$basic_string@DU?$char_traits@D@std@@V?$allocator@D@2@@1@AEBV21@@Z
pdata	ENDS
;	COMDAT pdata
pdata	SEGMENT
$pdata$?dtor$0@?0???$construct@V?$basic_string@DU?$char_traits@D@std@@V?$allocator@D@2@@std@@AEBV12@@?$allocator@V?$basic_string@DU?$char_traits@D@std@@V?$allocator@D@2@@std@@@std@@QEAAXPEAV?$basic_string@DU?$char_traits@D@std@@V?$allocator@D@2@@1@AEBV21@@Z@4HA DD imagerel ?dtor$0@?0???$construct@V?$basic_string@DU?$char_traits@D@std@@V?$allocator@D@2@@std@@AEBV12@@?$allocator@V?$basic_string@DU?$char_traits@D@std@@V?$allocator@D@2@@std@@@std@@QEAAXPEAV?$basic_string@DU?$char_traits@D@std@@V?$allocator@D@2@@1@AEBV21@@Z@4HA
	DD	imagerel ?dtor$0@?0???$construct@V?$basic_string@DU?$char_traits@D@std@@V?$allocator@D@2@@std@@AEBV12@@?$allocator@V?$basic_string@DU?$char_traits@D@std@@V?$allocator@D@2@@std@@@std@@QEAAXPEAV?$basic_string@DU?$char_traits@D@std@@V?$allocator@D@2@@1@AEBV21@@Z@4HA+28
	DD	imagerel $unwind$?dtor$0@?0???$construct@V?$basic_string@DU?$char_traits@D@std@@V?$allocator@D@2@@std@@AEBV12@@?$allocator@V?$basic_string@DU?$char_traits@D@std@@V?$allocator@D@2@@std@@@std@@QEAAXPEAV?$basic_string@DU?$char_traits@D@std@@V?$allocator@D@2@@1@AEBV21@@Z@4HA
pdata	ENDS
;	COMDAT pdata
pdata	SEGMENT
$pdata$??$construct@V?$basic_string@DU?$char_traits@D@std@@V?$allocator@D@2@@std@@AEBV12@@?$allocator_traits@V?$allocator@V?$basic_string@DU?$char_traits@D@std@@V?$allocator@D@2@@std@@@std@@@std@@SAXAEAV?$allocator@V?$basic_string@DU?$char_traits@D@std@@V?$allocator@D@2@@std@@@1@PEAV?$basic_string@DU?$char_traits@D@std@@V?$allocator@D@2@@1@AEBV31@@Z DD imagerel $LN160@construct
	DD	imagerel $LN160@construct+95
	DD	imagerel $unwind$??$construct@V?$basic_string@DU?$char_traits@D@std@@V?$allocator@D@2@@std@@AEBV12@@?$allocator_traits@V?$allocator@V?$basic_string@DU?$char_traits@D@std@@V?$allocator@D@2@@std@@@std@@@std@@SAXAEAV?$allocator@V?$basic_string@DU?$char_traits@D@std@@V?$allocator@D@2@@std@@@1@PEAV?$basic_string@DU?$char_traits@D@std@@V?$allocator@D@2@@1@AEBV31@@Z
pdata	ENDS
;	COMDAT pdata
pdata	SEGMENT
$pdata$?dtor$1@?0???$construct@V?$basic_string@DU?$char_traits@D@std@@V?$allocator@D@2@@std@@AEBV12@@?$allocator_traits@V?$allocator@V?$basic_string@DU?$char_traits@D@std@@V?$allocator@D@2@@std@@@std@@@std@@SAXAEAV?$allocator@V?$basic_string@DU?$char_traits@D@std@@V?$allocator@D@2@@std@@@1@PEAV?$basic_string@DU?$char_traits@D@std@@V?$allocator@D@2@@1@AEBV31@@Z@4HA DD imagerel ?dtor$1@?0???$construct@V?$basic_string@DU?$char_traits@D@std@@V?$allocator@D@2@@std@@AEBV12@@?$allocator_traits@V?$allocator@V?$basic_string@DU?$char_traits@D@std@@V?$allocator@D@2@@std@@@std@@@std@@SAXAEAV?$allocator@V?$basic_string@DU?$char_traits@D@std@@V?$allocator@D@2@@std@@@1@PEAV?$basic_string@DU?$char_traits@D@std@@V?$allocator@D@2@@1@AEBV31@@Z@4HA
	DD	imagerel ?dtor$1@?0???$construct@V?$basic_string@DU?$char_traits@D@std@@V?$allocator@D@2@@std@@AEBV12@@?$allocator_traits@V?$allocator@V?$basic_string@DU?$char_traits@D@std@@V?$allocator@D@2@@std@@@std@@@std@@SAXAEAV?$allocator@V?$basic_string@DU?$char_traits@D@std@@V?$allocator@D@2@@std@@@1@PEAV?$basic_string@DU?$char_traits@D@std@@V?$allocator@D@2@@1@AEBV31@@Z@4HA+28
	DD	imagerel $unwind$?dtor$1@?0???$construct@V?$basic_string@DU?$char_traits@D@std@@V?$allocator@D@2@@std@@AEBV12@@?$allocator_traits@V?$allocator@V?$basic_string@DU?$char_traits@D@std@@V?$allocator@D@2@@std@@@std@@@std@@SAXAEAV?$allocator@V?$basic_string@DU?$char_traits@D@std@@V?$allocator@D@2@@std@@@1@PEAV?$basic_string@DU?$char_traits@D@std@@V?$allocator@D@2@@1@AEBV31@@Z@4HA
pdata	ENDS
;	COMDAT pdata
pdata	SEGMENT
$pdata$??$_Copy_memmove@PEAPEAVAddress@@PEAPEAV1@@std@@YAPEAPEAVAddress@@PEAPEAV1@00@Z DD imagerel $LN4@Copy_memmo
	DD	imagerel $LN4@Copy_memmo+49
	DD	imagerel $unwind$??$_Copy_memmove@PEAPEAVAddress@@PEAPEAV1@@std@@YAPEAPEAVAddress@@PEAPEAV1@00@Z
pdata	ENDS
;	COMDAT pdata
pdata	SEGMENT
$pdata$??$swap@DU?$char_traits@D@std@@V?$allocator@D@2@@std@@YAXAEAV?$basic_string@DU?$char_traits@D@std@@V?$allocator@D@2@@0@0@Z DD imagerel $LN100@swap
	DD	imagerel $LN100@swap+69
	DD	imagerel $unwind$??$swap@DU?$char_traits@D@std@@V?$allocator@D@2@@std@@YAXAEAV?$basic_string@DU?$char_traits@D@std@@V?$allocator@D@2@@0@0@Z
pdata	ENDS
;	COMDAT pdata
pdata	SEGMENT
$pdata$??$construct@V?$basic_string@DU?$char_traits@D@std@@V?$allocator@D@2@@std@@AEBV12@@?$_Wrap_alloc@V?$allocator@V?$basic_string@DU?$char_traits@D@std@@V?$allocator@D@2@@std@@@std@@@std@@QEAAXPEAV?$basic_string@DU?$char_traits@D@std@@V?$allocator@D@2@@1@AEBV21@@Z DD imagerel $LN166@construct
	DD	imagerel $LN166@construct+95
	DD	imagerel $unwind$??$construct@V?$basic_string@DU?$char_traits@D@std@@V?$allocator@D@2@@std@@AEBV12@@?$_Wrap_alloc@V?$allocator@V?$basic_string@DU?$char_traits@D@std@@V?$allocator@D@2@@std@@@std@@@std@@QEAAXPEAV?$basic_string@DU?$char_traits@D@std@@V?$allocator@D@2@@1@AEBV21@@Z
pdata	ENDS
;	COMDAT pdata
pdata	SEGMENT
$pdata$?dtor$2@?0???$construct@V?$basic_string@DU?$char_traits@D@std@@V?$allocator@D@2@@std@@AEBV12@@?$_Wrap_alloc@V?$allocator@V?$basic_string@DU?$char_traits@D@std@@V?$allocator@D@2@@std@@@std@@@std@@QEAAXPEAV?$basic_string@DU?$char_traits@D@std@@V?$allocator@D@2@@1@AEBV21@@Z@4HA DD imagerel ?dtor$2@?0???$construct@V?$basic_string@DU?$char_traits@D@std@@V?$allocator@D@2@@std@@AEBV12@@?$_Wrap_alloc@V?$allocator@V?$basic_string@DU?$char_traits@D@std@@V?$allocator@D@2@@std@@@std@@@std@@QEAAXPEAV?$basic_string@DU?$char_traits@D@std@@V?$allocator@D@2@@1@AEBV21@@Z@4HA
	DD	imagerel ?dtor$2@?0???$construct@V?$basic_string@DU?$char_traits@D@std@@V?$allocator@D@2@@std@@AEBV12@@?$_Wrap_alloc@V?$allocator@V?$basic_string@DU?$char_traits@D@std@@V?$allocator@D@2@@std@@@std@@@std@@QEAAXPEAV?$basic_string@DU?$char_traits@D@std@@V?$allocator@D@2@@1@AEBV21@@Z@4HA+28
	DD	imagerel $unwind$?dtor$2@?0???$construct@V?$basic_string@DU?$char_traits@D@std@@V?$allocator@D@2@@std@@AEBV12@@?$_Wrap_alloc@V?$allocator@V?$basic_string@DU?$char_traits@D@std@@V?$allocator@D@2@@std@@@std@@@std@@QEAAXPEAV?$basic_string@DU?$char_traits@D@std@@V?$allocator@D@2@@1@AEBV21@@Z@4HA
pdata	ENDS
;	COMDAT pdata
pdata	SEGMENT
$pdata$??$_Copy_memmove@PEBQEAVPerson@@PEAPEAV1@@std@@YAPEAPEAVPerson@@PEBQEAV1@0PEAPEAV1@@Z DD imagerel $LN4@Copy_memmo
	DD	imagerel $LN4@Copy_memmo+49
	DD	imagerel $unwind$??$_Copy_memmove@PEBQEAVPerson@@PEAPEAV1@@std@@YAPEAPEAVPerson@@PEBQEAV1@0PEAPEAV1@@Z
pdata	ENDS
;	COMDAT pdata
pdata	SEGMENT
$pdata$??$_Copy_memmove@PEBQEAVAddress@@PEAPEAV1@@std@@YAPEAPEAVAddress@@PEBQEAV1@0PEAPEAV1@@Z DD imagerel $LN4@Copy_memmo
	DD	imagerel $LN4@Copy_memmo+49
	DD	imagerel $unwind$??$_Copy_memmove@PEBQEAVAddress@@PEAPEAV1@@std@@YAPEAPEAVAddress@@PEBQEAV1@0PEAPEAV1@@Z
pdata	ENDS
;	COMDAT pdata
pdata	SEGMENT
$pdata$??$_Copy_memmove@PEBHPEAH@std@@YAPEAHPEBH0PEAH@Z DD imagerel $LN4@Copy_memmo
	DD	imagerel $LN4@Copy_memmo+49
	DD	imagerel $unwind$??$_Copy_memmove@PEBHPEAH@std@@YAPEAHPEBH0PEAH@Z
pdata	ENDS
;	COMDAT pdata
pdata	SEGMENT
$pdata$??$_Uninitialized_move_al_unchecked1@PEAVAddress@@PEAV1@V?$allocator@PEAVAddress@@@std@@@std@@YAPEAPEAVAddress@@PEAPEAV1@00AEAU?$_Wrap_alloc@V?$allocator@PEAVAddress@@@std@@@0@U_Really_trivial_ptr_iterator_tag@0@U?$integral_constant@_N$00@0@@Z DD imagerel $LN6@Uninitiali
	DD	imagerel $LN6@Uninitiali+49
	DD	imagerel $unwind$??$_Uninitialized_move_al_unchecked1@PEAVAddress@@PEAV1@V?$allocator@PEAVAddress@@@std@@@std@@YAPEAPEAVAddress@@PEAPEAV1@00AEAU?$_Wrap_alloc@V?$allocator@PEAVAddress@@@std@@@0@U_Really_trivial_ptr_iterator_tag@0@U?$integral_constant@_N$00@0@@Z
pdata	ENDS
;	COMDAT pdata
pdata	SEGMENT
$pdata$??$iter_swap@PEAV?$basic_string@DU?$char_traits@D@std@@V?$allocator@D@2@@std@@PEAV12@@std@@YAXPEAV?$basic_string@DU?$char_traits@D@std@@V?$allocator@D@2@@0@0@Z DD imagerel $LN104@iter_swap
	DD	imagerel $LN104@iter_swap+69
	DD	imagerel $unwind$??$iter_swap@PEAV?$basic_string@DU?$char_traits@D@std@@V?$allocator@D@2@@std@@PEAV12@@std@@YAXPEAV?$basic_string@DU?$char_traits@D@std@@V?$allocator@D@2@@0@0@Z
pdata	ENDS
;	COMDAT pdata
pdata	SEGMENT
$pdata$??$_Uninitialized_copy_al_unchecked1@PEBV?$basic_string@DU?$char_traits@D@std@@V?$allocator@D@2@@std@@PEAV12@V?$allocator@V?$basic_string@DU?$char_traits@D@std@@V?$allocator@D@2@@std@@@2@@std@@YAPEAV?$basic_string@DU?$char_traits@D@std@@V?$allocator@D@2@@0@PEBV10@0PEAV10@AEAU?$_Wrap_alloc@V?$allocator@V?$basic_string@DU?$char_traits@D@std@@V?$allocator@D@2@@std@@@std@@@0@U_General_ptr_iterator_tag@0@U_Any_tag@0@@Z DD imagerel $LN205@Uninitiali
	DD	imagerel $LN205@Uninitiali+145
	DD	imagerel $unwind$??$_Uninitialized_copy_al_unchecked1@PEBV?$basic_string@DU?$char_traits@D@std@@V?$allocator@D@2@@std@@PEAV12@V?$allocator@V?$basic_string@DU?$char_traits@D@std@@V?$allocator@D@2@@std@@@2@@std@@YAPEAV?$basic_string@DU?$char_traits@D@std@@V?$allocator@D@2@@0@PEBV10@0PEAV10@AEAU?$_Wrap_alloc@V?$allocator@V?$basic_string@DU?$char_traits@D@std@@V?$allocator@D@2@@std@@@std@@@0@U_General_ptr_iterator_tag@0@U_Any_tag@0@@Z
pdata	ENDS
;	COMDAT pdata
pdata	SEGMENT
$pdata$?dtor$2@?0???$_Uninitialized_copy_al_unchecked1@PEBV?$basic_string@DU?$char_traits@D@std@@V?$allocator@D@2@@std@@PEAV12@V?$allocator@V?$basic_string@DU?$char_traits@D@std@@V?$allocator@D@2@@std@@@2@@std@@YAPEAV?$basic_string@DU?$char_traits@D@std@@V?$allocator@D@2@@0@PEBV10@0PEAV10@AEAU?$_Wrap_alloc@V?$allocator@V?$basic_string@DU?$char_traits@D@std@@V?$allocator@D@2@@std@@@std@@@0@U_General_ptr_iterator_tag@0@U_Any_tag@0@@Z@4HA DD imagerel ?dtor$2@?0???$_Uninitialized_copy_al_unchecked1@PEBV?$basic_string@DU?$char_traits@D@std@@V?$allocator@D@2@@std@@PEAV12@V?$allocator@V?$basic_string@DU?$char_traits@D@std@@V?$allocator@D@2@@std@@@2@@std@@YAPEAV?$basic_string@DU?$char_traits@D@std@@V?$allocator@D@2@@0@PEBV10@0PEAV10@AEAU?$_Wrap_alloc@V?$allocator@V?$basic_string@DU?$char_traits@D@std@@V?$allocator@D@2@@std@@@std@@@0@U_General_ptr_iterator_tag@0@U_Any_tag@0@@Z@4HA
	DD	imagerel ?dtor$2@?0???$_Uninitialized_copy_al_unchecked1@PEBV?$basic_string@DU?$char_traits@D@std@@V?$allocator@D@2@@std@@PEAV12@V?$allocator@V?$basic_string@DU?$char_traits@D@std@@V?$allocator@D@2@@std@@@2@@std@@YAPEAV?$basic_string@DU?$char_traits@D@std@@V?$allocator@D@2@@0@PEBV10@0PEAV10@AEAU?$_Wrap_alloc@V?$allocator@V?$basic_string@DU?$char_traits@D@std@@V?$allocator@D@2@@std@@@std@@@0@U_General_ptr_iterator_tag@0@U_Any_tag@0@@Z@4HA+28
	DD	imagerel $unwind$?dtor$2@?0???$_Uninitialized_copy_al_unchecked1@PEBV?$basic_string@DU?$char_traits@D@std@@V?$allocator@D@2@@std@@PEAV12@V?$allocator@V?$basic_string@DU?$char_traits@D@std@@V?$allocator@D@2@@std@@@2@@std@@YAPEAV?$basic_string@DU?$char_traits@D@std@@V?$allocator@D@2@@0@PEBV10@0PEAV10@AEAU?$_Wrap_alloc@V?$allocator@V?$basic_string@DU?$char_traits@D@std@@V?$allocator@D@2@@std@@@std@@@0@U_General_ptr_iterator_tag@0@U_Any_tag@0@@Z@4HA
pdata	ENDS
;	COMDAT pdata
pdata	SEGMENT
$pdata$?catch$36@?0???$_Uninitialized_copy_al_unchecked1@PEBV?$basic_string@DU?$char_traits@D@std@@V?$allocator@D@2@@std@@PEAV12@V?$allocator@V?$basic_string@DU?$char_traits@D@std@@V?$allocator@D@2@@std@@@2@@std@@YAPEAV?$basic_string@DU?$char_traits@D@std@@V?$allocator@D@2@@0@PEBV10@0PEAV10@AEAU?$_Wrap_alloc@V?$allocator@V?$basic_string@DU?$char_traits@D@std@@V?$allocator@D@2@@std@@@std@@@0@U_General_ptr_iterator_tag@0@U_Any_tag@0@@Z@4HA DD imagerel ?catch$36@?0???$_Uninitialized_copy_al_unchecked1@PEBV?$basic_string@DU?$char_traits@D@std@@V?$allocator@D@2@@std@@PEAV12@V?$allocator@V?$basic_string@DU?$char_traits@D@std@@V?$allocator@D@2@@std@@@2@@std@@YAPEAV?$basic_string@DU?$char_traits@D@std@@V?$allocator@D@2@@0@PEBV10@0PEAV10@AEAU?$_Wrap_alloc@V?$allocator@V?$basic_string@DU?$char_traits@D@std@@V?$allocator@D@2@@std@@@std@@@0@U_General_ptr_iterator_tag@0@U_Any_tag@0@@Z@4HA
	DD	imagerel ?catch$36@?0???$_Uninitialized_copy_al_unchecked1@PEBV?$basic_string@DU?$char_traits@D@std@@V?$allocator@D@2@@std@@PEAV12@V?$allocator@V?$basic_string@DU?$char_traits@D@std@@V?$allocator@D@2@@std@@@2@@std@@YAPEAV?$basic_string@DU?$char_traits@D@std@@V?$allocator@D@2@@0@PEBV10@0PEAV10@AEAU?$_Wrap_alloc@V?$allocator@V?$basic_string@DU?$char_traits@D@std@@V?$allocator@D@2@@std@@@std@@@0@U_General_ptr_iterator_tag@0@U_Any_tag@0@@Z@4HA+55
	DD	imagerel $unwind$?catch$36@?0???$_Uninitialized_copy_al_unchecked1@PEBV?$basic_string@DU?$char_traits@D@std@@V?$allocator@D@2@@std@@PEAV12@V?$allocator@V?$basic_string@DU?$char_traits@D@std@@V?$allocator@D@2@@std@@@2@@std@@YAPEAV?$basic_string@DU?$char_traits@D@std@@V?$allocator@D@2@@0@PEBV10@0PEAV10@AEAU?$_Wrap_alloc@V?$allocator@V?$basic_string@DU?$char_traits@D@std@@V?$allocator@D@2@@std@@@std@@@0@U_General_ptr_iterator_tag@0@U_Any_tag@0@@Z@4HA
pdata	ENDS
;	COMDAT pdata
pdata	SEGMENT
$pdata$??$_Uninitialized_copy_al_unchecked1@QEAVPerson@@PEAV1@V?$allocator@PEAVPerson@@@std@@@std@@YAPEAPEAVPerson@@PEBQEAV1@0PEAPEAV1@AEAU?$_Wrap_alloc@V?$allocator@PEAVPerson@@@std@@@0@U_Really_trivial_ptr_iterator_tag@0@U?$integral_constant@_N$00@0@@Z DD imagerel $LN6@Uninitiali
	DD	imagerel $LN6@Uninitiali+49
	DD	imagerel $unwind$??$_Uninitialized_copy_al_unchecked1@QEAVPerson@@PEAV1@V?$allocator@PEAVPerson@@@std@@@std@@YAPEAPEAVPerson@@PEBQEAV1@0PEAPEAV1@AEAU?$_Wrap_alloc@V?$allocator@PEAVPerson@@@std@@@0@U_Really_trivial_ptr_iterator_tag@0@U?$integral_constant@_N$00@0@@Z
pdata	ENDS
;	COMDAT pdata
pdata	SEGMENT
$pdata$??$_Uninitialized_copy_al_unchecked1@QEAVAddress@@PEAV1@V?$allocator@PEAVAddress@@@std@@@std@@YAPEAPEAVAddress@@PEBQEAV1@0PEAPEAV1@AEAU?$_Wrap_alloc@V?$allocator@PEAVAddress@@@std@@@0@U_Really_trivial_ptr_iterator_tag@0@U?$integral_constant@_N$00@0@@Z DD imagerel $LN6@Uninitiali
	DD	imagerel $LN6@Uninitiali+49
	DD	imagerel $unwind$??$_Uninitialized_copy_al_unchecked1@QEAVAddress@@PEAV1@V?$allocator@PEAVAddress@@@std@@@std@@YAPEAPEAVAddress@@PEBQEAV1@0PEAPEAV1@AEAU?$_Wrap_alloc@V?$allocator@PEAVAddress@@@std@@@0@U_Really_trivial_ptr_iterator_tag@0@U?$integral_constant@_N$00@0@@Z
pdata	ENDS
;	COMDAT pdata
pdata	SEGMENT
$pdata$??$_Uninitialized_copy_al_unchecked1@$$CBHHV?$allocator@H@std@@@std@@YAPEAHPEBH0PEAHAEAU?$_Wrap_alloc@V?$allocator@H@std@@@0@U_Really_trivial_ptr_iterator_tag@0@U?$integral_constant@_N$00@0@@Z DD imagerel $LN6@Uninitiali
	DD	imagerel $LN6@Uninitiali+49
	DD	imagerel $unwind$??$_Uninitialized_copy_al_unchecked1@$$CBHHV?$allocator@H@std@@@std@@YAPEAHPEBH0PEAHAEAU?$_Wrap_alloc@V?$allocator@H@std@@@0@U_Really_trivial_ptr_iterator_tag@0@U?$integral_constant@_N$00@0@@Z
pdata	ENDS
;	COMDAT pdata
pdata	SEGMENT
$pdata$??_G?$basic_string@DU?$char_traits@D@std@@V?$allocator@D@2@@std@@QEAAPEAXI@Z DD imagerel $LN5@scalar
	DD	imagerel $LN5@scalar+23
	DD	imagerel $unwind$??_G?$basic_string@DU?$char_traits@D@std@@V?$allocator@D@2@@std@@QEAAPEAXI@Z
pdata	ENDS
;	COMDAT pdata
pdata	SEGMENT
$pdata$??$_Uninitialized_move_al_unchecked@PEAPEAVAddress@@PEAPEAV1@V?$allocator@PEAVAddress@@@std@@@std@@YAPEAPEAVAddress@@PEAPEAV1@00AEAU?$_Wrap_alloc@V?$allocator@PEAVAddress@@@std@@@0@@Z DD imagerel $LN10@Uninitiali
	DD	imagerel $LN10@Uninitiali+49
	DD	imagerel $unwind$??$_Uninitialized_move_al_unchecked@PEAPEAVAddress@@PEAPEAV1@V?$allocator@PEAVAddress@@@std@@@std@@YAPEAPEAVAddress@@PEAPEAV1@00AEAU?$_Wrap_alloc@V?$allocator@PEAVAddress@@@std@@@0@@Z
pdata	ENDS
;	COMDAT pdata
pdata	SEGMENT
$pdata$??$_Reverse_unchecked@PEAV?$basic_string@DU?$char_traits@D@std@@V?$allocator@D@2@@std@@@std@@YAXPEAV?$basic_string@DU?$char_traits@D@std@@V?$allocator@D@2@@0@0@Z DD imagerel $LN119@Reverse_un
	DD	imagerel $LN119@Reverse_un+9
	DD	imagerel $unwind$??$_Reverse_unchecked@PEAV?$basic_string@DU?$char_traits@D@std@@V?$allocator@D@2@@std@@@std@@YAXPEAV?$basic_string@DU?$char_traits@D@std@@V?$allocator@D@2@@0@0@Z
pdata	ENDS
;	COMDAT pdata
pdata	SEGMENT
$pdata$2$??$_Reverse_unchecked@PEAV?$basic_string@DU?$char_traits@D@std@@V?$allocator@D@2@@std@@@std@@YAXPEAV?$basic_string@DU?$char_traits@D@std@@V?$allocator@D@2@@0@0@Z DD imagerel $LN119@Reverse_un+9
	DD	imagerel $LN119@Reverse_un+113
	DD	imagerel $chain$2$??$_Reverse_unchecked@PEAV?$basic_string@DU?$char_traits@D@std@@V?$allocator@D@2@@std@@@std@@YAXPEAV?$basic_string@DU?$char_traits@D@std@@V?$allocator@D@2@@0@0@Z
pdata	ENDS
;	COMDAT pdata
pdata	SEGMENT
$pdata$3$??$_Reverse_unchecked@PEAV?$basic_string@DU?$char_traits@D@std@@V?$allocator@D@2@@std@@@std@@YAXPEAV?$basic_string@DU?$char_traits@D@std@@V?$allocator@D@2@@0@0@Z DD imagerel $LN119@Reverse_un+113
	DD	imagerel $LN119@Reverse_un+118
	DD	imagerel $chain$3$??$_Reverse_unchecked@PEAV?$basic_string@DU?$char_traits@D@std@@V?$allocator@D@2@@std@@@std@@YAXPEAV?$basic_string@DU?$char_traits@D@std@@V?$allocator@D@2@@0@0@Z
pdata	ENDS
;	COMDAT pdata
pdata	SEGMENT
$pdata$??$_Uninitialized_copy_al_unchecked@PEBV?$basic_string@DU?$char_traits@D@std@@V?$allocator@D@2@@std@@PEAV12@V?$allocator@V?$basic_string@DU?$char_traits@D@std@@V?$allocator@D@2@@std@@@2@@std@@YAPEAV?$basic_string@DU?$char_traits@D@std@@V?$allocator@D@2@@0@PEBV10@0PEAV10@AEAU?$_Wrap_alloc@V?$allocator@V?$basic_string@DU?$char_traits@D@std@@V?$allocator@D@2@@std@@@std@@@0@@Z DD imagerel $LN9@Uninitiali
	DD	imagerel $LN9@Uninitiali+42
	DD	imagerel $unwind$??$_Uninitialized_copy_al_unchecked@PEBV?$basic_string@DU?$char_traits@D@std@@V?$allocator@D@2@@std@@PEAV12@V?$allocator@V?$basic_string@DU?$char_traits@D@std@@V?$allocator@D@2@@std@@@2@@std@@YAPEAV?$basic_string@DU?$char_traits@D@std@@V?$allocator@D@2@@0@PEBV10@0PEAV10@AEAU?$_Wrap_alloc@V?$allocator@V?$basic_string@DU?$char_traits@D@std@@V?$allocator@D@2@@std@@@std@@@0@@Z
pdata	ENDS
;	COMDAT pdata
pdata	SEGMENT
$pdata$??$_Uninitialized_copy_al_unchecked@PEBQEAVPerson@@PEAPEAV1@V?$allocator@PEAVPerson@@@std@@@std@@YAPEAPEAVPerson@@PEBQEAV1@0PEAPEAV1@AEAU?$_Wrap_alloc@V?$allocator@PEAVPerson@@@std@@@0@@Z DD imagerel $LN10@Uninitiali
	DD	imagerel $LN10@Uninitiali+49
	DD	imagerel $unwind$??$_Uninitialized_copy_al_unchecked@PEBQEAVPerson@@PEAPEAV1@V?$allocator@PEAVPerson@@@std@@@std@@YAPEAPEAVPerson@@PEBQEAV1@0PEAPEAV1@AEAU?$_Wrap_alloc@V?$allocator@PEAVPerson@@@std@@@0@@Z
pdata	ENDS
;	COMDAT pdata
pdata	SEGMENT
$pdata$??$_Uninitialized_copy_al_unchecked@PEBQEAVAddress@@PEAPEAV1@V?$allocator@PEAVAddress@@@std@@@std@@YAPEAPEAVAddress@@PEBQEAV1@0PEAPEAV1@AEAU?$_Wrap_alloc@V?$allocator@PEAVAddress@@@std@@@0@@Z DD imagerel $LN10@Uninitiali
	DD	imagerel $LN10@Uninitiali+49
	DD	imagerel $unwind$??$_Uninitialized_copy_al_unchecked@PEBQEAVAddress@@PEAPEAV1@V?$allocator@PEAVAddress@@@std@@@std@@YAPEAPEAVAddress@@PEBQEAV1@0PEAPEAV1@AEAU?$_Wrap_alloc@V?$allocator@PEAVAddress@@@std@@@0@@Z
pdata	ENDS
;	COMDAT pdata
pdata	SEGMENT
$pdata$??$_Uninitialized_copy_al_unchecked@PEBHPEAHV?$allocator@H@std@@@std@@YAPEAHPEBH0PEAHAEAU?$_Wrap_alloc@V?$allocator@H@std@@@0@@Z DD imagerel $LN10@Uninitiali
	DD	imagerel $LN10@Uninitiali+49
	DD	imagerel $unwind$??$_Uninitialized_copy_al_unchecked@PEBHPEAHV?$allocator@H@std@@@std@@YAPEAHPEBH0PEAHAEAU?$_Wrap_alloc@V?$allocator@H@std@@@0@@Z
pdata	ENDS
;	COMDAT pdata
pdata	SEGMENT
$pdata$??$_Uninitialized_move@PEAPEAVAddress@@PEAPEAV1@V?$allocator@PEAVAddress@@@std@@@std@@YAPEAPEAVAddress@@PEAPEAV1@00AEAU?$_Wrap_alloc@V?$allocator@PEAVAddress@@@std@@@0@@Z DD imagerel $LN20@Uninitiali
	DD	imagerel $LN20@Uninitiali+49
	DD	imagerel $unwind$??$_Uninitialized_move@PEAPEAVAddress@@PEAPEAV1@V?$allocator@PEAVAddress@@@std@@@std@@YAPEAPEAVAddress@@PEAPEAV1@00AEAU?$_Wrap_alloc@V?$allocator@PEAVAddress@@@std@@@0@@Z
pdata	ENDS
;	COMDAT pdata
pdata	SEGMENT
$pdata$??$_Uninitialized_move_al_unchecked1@PEAV?$basic_string@DU?$char_traits@D@std@@V?$allocator@D@2@@std@@PEAV12@V?$allocator@V?$basic_string@DU?$char_traits@D@std@@V?$allocator@D@2@@std@@@2@@std@@YAPEAV?$basic_string@DU?$char_traits@D@std@@V?$allocator@D@2@@0@PEAV10@00AEAU?$_Wrap_alloc@V?$allocator@V?$basic_string@DU?$char_traits@D@std@@V?$allocator@D@2@@std@@@std@@@0@U_General_ptr_iterator_tag@0@U_Any_tag@0@@Z DD imagerel $LN209@Uninitiali
	DD	imagerel $LN209@Uninitiali+30
	DD	imagerel $unwind$??$_Uninitialized_move_al_unchecked1@PEAV?$basic_string@DU?$char_traits@D@std@@V?$allocator@D@2@@std@@PEAV12@V?$allocator@V?$basic_string@DU?$char_traits@D@std@@V?$allocator@D@2@@std@@@2@@std@@YAPEAV?$basic_string@DU?$char_traits@D@std@@V?$allocator@D@2@@0@PEAV10@00AEAU?$_Wrap_alloc@V?$allocator@V?$basic_string@DU?$char_traits@D@std@@V?$allocator@D@2@@std@@@std@@@0@U_General_ptr_iterator_tag@0@U_Any_tag@0@@Z
pdata	ENDS
;	COMDAT pdata
pdata	SEGMENT
$pdata$2$??$_Uninitialized_move_al_unchecked1@PEAV?$basic_string@DU?$char_traits@D@std@@V?$allocator@D@2@@std@@PEAV12@V?$allocator@V?$basic_string@DU?$char_traits@D@std@@V?$allocator@D@2@@std@@@2@@std@@YAPEAV?$basic_string@DU?$char_traits@D@std@@V?$allocator@D@2@@0@PEAV10@00AEAU?$_Wrap_alloc@V?$allocator@V?$basic_string@DU?$char_traits@D@std@@V?$allocator@D@2@@std@@@std@@@0@U_General_ptr_iterator_tag@0@U_Any_tag@0@@Z DD imagerel $LN209@Uninitiali+30
	DD	imagerel $LN209@Uninitiali+86
	DD	imagerel $chain$2$??$_Uninitialized_move_al_unchecked1@PEAV?$basic_string@DU?$char_traits@D@std@@V?$allocator@D@2@@std@@PEAV12@V?$allocator@V?$basic_string@DU?$char_traits@D@std@@V?$allocator@D@2@@std@@@2@@std@@YAPEAV?$basic_string@DU?$char_traits@D@std@@V?$allocator@D@2@@0@PEAV10@00AEAU?$_Wrap_alloc@V?$allocator@V?$basic_string@DU?$char_traits@D@std@@V?$allocator@D@2@@std@@@std@@@0@U_General_ptr_iterator_tag@0@U_Any_tag@0@@Z
pdata	ENDS
;	COMDAT pdata
pdata	SEGMENT
$pdata$3$??$_Uninitialized_move_al_unchecked1@PEAV?$basic_string@DU?$char_traits@D@std@@V?$allocator@D@2@@std@@PEAV12@V?$allocator@V?$basic_string@DU?$char_traits@D@std@@V?$allocator@D@2@@std@@@2@@std@@YAPEAV?$basic_string@DU?$char_traits@D@std@@V?$allocator@D@2@@0@PEAV10@00AEAU?$_Wrap_alloc@V?$allocator@V?$basic_string@DU?$char_traits@D@std@@V?$allocator@D@2@@std@@@std@@@0@U_General_ptr_iterator_tag@0@U_Any_tag@0@@Z DD imagerel $LN209@Uninitiali+86
	DD	imagerel $LN209@Uninitiali+105
	DD	imagerel $chain$3$??$_Uninitialized_move_al_unchecked1@PEAV?$basic_string@DU?$char_traits@D@std@@V?$allocator@D@2@@std@@PEAV12@V?$allocator@V?$basic_string@DU?$char_traits@D@std@@V?$allocator@D@2@@std@@@2@@std@@YAPEAV?$basic_string@DU?$char_traits@D@std@@V?$allocator@D@2@@0@PEAV10@00AEAU?$_Wrap_alloc@V?$allocator@V?$basic_string@DU?$char_traits@D@std@@V?$allocator@D@2@@std@@@std@@@0@U_General_ptr_iterator_tag@0@U_Any_tag@0@@Z
pdata	ENDS
;	COMDAT pdata
pdata	SEGMENT
$pdata$??$_Rotate_unchecked1@PEAV?$basic_string@DU?$char_traits@D@std@@V?$allocator@D@2@@std@@@std@@YAPEAV?$basic_string@DU?$char_traits@D@std@@V?$allocator@D@2@@0@PEAV10@00Urandom_access_iterator_tag@0@@Z DD imagerel $LN347@Rotate_unc
	DD	imagerel $LN347@Rotate_unc+310
	DD	imagerel $unwind$??$_Rotate_unchecked1@PEAV?$basic_string@DU?$char_traits@D@std@@V?$allocator@D@2@@std@@@std@@YAPEAV?$basic_string@DU?$char_traits@D@std@@V?$allocator@D@2@@0@PEAV10@00Urandom_access_iterator_tag@0@@Z
pdata	ENDS
;	COMDAT pdata
pdata	SEGMENT
$pdata$??$_Uninitialized_copy@PEBV?$basic_string@DU?$char_traits@D@std@@V?$allocator@D@2@@std@@PEAV12@V?$allocator@V?$basic_string@DU?$char_traits@D@std@@V?$allocator@D@2@@std@@@2@@std@@YAPEAV?$basic_string@DU?$char_traits@D@std@@V?$allocator@D@2@@0@PEBV10@0PEAV10@AEAU?$_Wrap_alloc@V?$allocator@V?$basic_string@DU?$char_traits@D@std@@V?$allocator@D@2@@std@@@std@@@0@@Z DD imagerel $LN19@Uninitiali
	DD	imagerel $LN19@Uninitiali+14
	DD	imagerel $unwind$??$_Uninitialized_copy@PEBV?$basic_string@DU?$char_traits@D@std@@V?$allocator@D@2@@std@@PEAV12@V?$allocator@V?$basic_string@DU?$char_traits@D@std@@V?$allocator@D@2@@std@@@2@@std@@YAPEAV?$basic_string@DU?$char_traits@D@std@@V?$allocator@D@2@@0@PEBV10@0PEAV10@AEAU?$_Wrap_alloc@V?$allocator@V?$basic_string@DU?$char_traits@D@std@@V?$allocator@D@2@@std@@@std@@@0@@Z
pdata	ENDS
;	COMDAT pdata
pdata	SEGMENT
$pdata$??$_Uninitialized_copy@PEBQEAVPerson@@PEAPEAV1@V?$allocator@PEAVPerson@@@std@@@std@@YAPEAPEAVPerson@@PEBQEAV1@0PEAPEAV1@AEAU?$_Wrap_alloc@V?$allocator@PEAVPerson@@@std@@@0@@Z DD imagerel $LN20@Uninitiali
	DD	imagerel $LN20@Uninitiali+49
	DD	imagerel $unwind$??$_Uninitialized_copy@PEBQEAVPerson@@PEAPEAV1@V?$allocator@PEAVPerson@@@std@@@std@@YAPEAPEAVPerson@@PEBQEAV1@0PEAPEAV1@AEAU?$_Wrap_alloc@V?$allocator@PEAVPerson@@@std@@@0@@Z
pdata	ENDS
;	COMDAT pdata
pdata	SEGMENT
$pdata$??$_Rotate_unchecked1@PEAPEAVAddress@@@std@@YAPEAPEAVAddress@@PEAPEAV1@00Urandom_access_iterator_tag@0@@Z DD imagerel $LN76@Rotate_unc
	DD	imagerel $LN76@Rotate_unc+180
	DD	imagerel $unwind$??$_Rotate_unchecked1@PEAPEAVAddress@@@std@@YAPEAPEAVAddress@@PEAPEAV1@00Urandom_access_iterator_tag@0@@Z
pdata	ENDS
;	COMDAT pdata
pdata	SEGMENT
$pdata$??$_Uninitialized_copy@PEBQEAVAddress@@PEAPEAV1@V?$allocator@PEAVAddress@@@std@@@std@@YAPEAPEAVAddress@@PEBQEAV1@0PEAPEAV1@AEAU?$_Wrap_alloc@V?$allocator@PEAVAddress@@@std@@@0@@Z DD imagerel $LN20@Uninitiali
	DD	imagerel $LN20@Uninitiali+49
	DD	imagerel $unwind$??$_Uninitialized_copy@PEBQEAVAddress@@PEAPEAV1@V?$allocator@PEAVAddress@@@std@@@std@@YAPEAPEAVAddress@@PEBQEAV1@0PEAPEAV1@AEAU?$_Wrap_alloc@V?$allocator@PEAVAddress@@@std@@@0@@Z
pdata	ENDS
;	COMDAT pdata
pdata	SEGMENT
$pdata$??$_Uninitialized_copy@PEBHPEAHV?$allocator@H@std@@@std@@YAPEAHPEBH0PEAHAEAU?$_Wrap_alloc@V?$allocator@H@std@@@0@@Z DD imagerel $LN20@Uninitiali
	DD	imagerel $LN20@Uninitiali+49
	DD	imagerel $unwind$??$_Uninitialized_copy@PEBHPEAHV?$allocator@H@std@@@std@@YAPEAHPEBH0PEAHAEAU?$_Wrap_alloc@V?$allocator@H@std@@@0@@Z
pdata	ENDS
;	COMDAT pdata
pdata	SEGMENT
$pdata$?set@?$bitset@$0BA@@std@@QEAAAEAV12@_K_N@Z DD imagerel $LN11@set
	DD	imagerel $LN11@set+56
	DD	imagerel $unwind$?set@?$bitset@$0BA@@std@@QEAAAEAV12@_K_N@Z
pdata	ENDS
;	COMDAT pdata
pdata	SEGMENT
$pdata$?_Xinv@?$bitset@$0BA@@std@@AEBAXXZ DD imagerel $LN4@Xinv
	DD	imagerel $LN4@Xinv+18
	DD	imagerel $unwind$?_Xinv@?$bitset@$0BA@@std@@AEBAXXZ
pdata	ENDS
;	COMDAT pdata
pdata	SEGMENT
$pdata$??$_Umove@PEAPEAVAddress@@@?$vector@PEAVAddress@@V?$allocator@PEAVAddress@@@std@@@std@@IEAAPEAPEAVAddress@@PEAPEAV2@00@Z DD imagerel $LN28@Umove
	DD	imagerel $LN28@Umove+46
	DD	imagerel $unwind$??$_Umove@PEAPEAVAddress@@@?$vector@PEAVAddress@@V?$allocator@PEAVAddress@@@std@@@std@@IEAAPEAPEAVAddress@@PEAPEAV2@00@Z
pdata	ENDS
;	COMDAT pdata
pdata	SEGMENT
$pdata$??$_Uninitialized_move_al_unchecked@PEAV?$basic_string@DU?$char_traits@D@std@@V?$allocator@D@2@@std@@PEAV12@V?$allocator@V?$basic_string@DU?$char_traits@D@std@@V?$allocator@D@2@@std@@@2@@std@@YAPEAV?$basic_string@DU?$char_traits@D@std@@V?$allocator@D@2@@0@PEAV10@00AEAU?$_Wrap_alloc@V?$allocator@V?$basic_string@DU?$char_traits@D@std@@V?$allocator@D@2@@std@@@std@@@0@@Z DD imagerel $LN9@Uninitiali
	DD	imagerel $LN9@Uninitiali+42
	DD	imagerel $unwind$??$_Uninitialized_move_al_unchecked@PEAV?$basic_string@DU?$char_traits@D@std@@V?$allocator@D@2@@std@@PEAV12@V?$allocator@V?$basic_string@DU?$char_traits@D@std@@V?$allocator@D@2@@std@@@2@@std@@YAPEAV?$basic_string@DU?$char_traits@D@std@@V?$allocator@D@2@@0@PEAV10@00AEAU?$_Wrap_alloc@V?$allocator@V?$basic_string@DU?$char_traits@D@std@@V?$allocator@D@2@@std@@@std@@@0@@Z
pdata	ENDS
;	COMDAT pdata
pdata	SEGMENT
$pdata$??$_Ucopy@PEBV?$basic_string@DU?$char_traits@D@std@@V?$allocator@D@2@@std@@@?$vector@V?$basic_string@DU?$char_traits@D@std@@V?$allocator@D@2@@std@@V?$allocator@V?$basic_string@DU?$char_traits@D@std@@V?$allocator@D@2@@std@@@2@@std@@IEAAPEAV?$basic_string@DU?$char_traits@D@std@@V?$allocator@D@2@@1@PEBV21@0PEAV21@@Z DD imagerel $LN27@Ucopy
	DD	imagerel $LN27@Ucopy+26
	DD	imagerel $unwind$??$_Ucopy@PEBV?$basic_string@DU?$char_traits@D@std@@V?$allocator@D@2@@std@@@?$vector@V?$basic_string@DU?$char_traits@D@std@@V?$allocator@D@2@@std@@V?$allocator@V?$basic_string@DU?$char_traits@D@std@@V?$allocator@D@2@@std@@@2@@std@@IEAAPEAV?$basic_string@DU?$char_traits@D@std@@V?$allocator@D@2@@1@PEBV21@0PEAV21@@Z
pdata	ENDS
;	COMDAT pdata
pdata	SEGMENT
$pdata$??$_Ucopy@PEBQEAVPerson@@@?$vector@PEAVPerson@@V?$allocator@PEAVPerson@@@std@@@std@@IEAAPEAPEAVPerson@@PEBQEAV2@0PEAPEAV2@@Z DD imagerel $LN28@Ucopy
	DD	imagerel $LN28@Ucopy+46
	DD	imagerel $unwind$??$_Ucopy@PEBQEAVPerson@@@?$vector@PEAVPerson@@V?$allocator@PEAVPerson@@@std@@@std@@IEAAPEAPEAVPerson@@PEBQEAV2@0PEAPEAV2@@Z
pdata	ENDS
;	COMDAT pdata
pdata	SEGMENT
$pdata$??$_Ucopy@PEBQEAVAddress@@@?$vector@PEAVAddress@@V?$allocator@PEAVAddress@@@std@@@std@@IEAAPEAPEAVAddress@@PEBQEAV2@0PEAPEAV2@@Z DD imagerel $LN28@Ucopy
	DD	imagerel $LN28@Ucopy+46
	DD	imagerel $unwind$??$_Ucopy@PEBQEAVAddress@@@?$vector@PEAVAddress@@V?$allocator@PEAVAddress@@@std@@@std@@IEAAPEAPEAVAddress@@PEBQEAV2@0PEAPEAV2@@Z
pdata	ENDS
;	COMDAT pdata
pdata	SEGMENT
$pdata$??$_Ucopy@PEBH@?$vector@HV?$allocator@H@std@@@std@@IEAAPEAHPEBH0PEAH@Z DD imagerel $LN28@Ucopy
	DD	imagerel $LN28@Ucopy+46
	DD	imagerel $unwind$??$_Ucopy@PEBH@?$vector@HV?$allocator@H@std@@@std@@IEAAPEAHPEBH0PEAH@Z
pdata	ENDS
;	COMDAT pdata
pdata	SEGMENT
$pdata$??$_Construct@DU?$char_traits@D@std@@V?$allocator@D@2@@?$bitset@$0BA@@std@@QEAAXAEBV?$basic_string@DU?$char_traits@D@std@@V?$allocator@D@2@@1@_K1DD@Z DD imagerel $LN148@Construct
	DD	imagerel $LN148@Construct+212
	DD	imagerel $unwind$??$_Construct@DU?$char_traits@D@std@@V?$allocator@D@2@@?$bitset@$0BA@@std@@QEAAXAEBV?$basic_string@DU?$char_traits@D@std@@V?$allocator@D@2@@1@_K1DD@Z
pdata	ENDS
;	COMDAT pdata
pdata	SEGMENT
$pdata$?allocate@?$allocator@PEAVPerson@@@std@@QEAAPEAPEAVPerson@@_K@Z DD imagerel $LN15@allocate
	DD	imagerel $LN15@allocate+114
	DD	imagerel $unwind$?allocate@?$allocator@PEAVPerson@@@std@@QEAAPEAPEAVPerson@@_K@Z
pdata	ENDS
;	COMDAT pdata
pdata	SEGMENT
$pdata$?allocate@?$allocator@PEAVAddress@@@std@@QEAAPEAPEAVAddress@@_K@Z DD imagerel $LN15@allocate
	DD	imagerel $LN15@allocate+114
	DD	imagerel $unwind$?allocate@?$allocator@PEAVAddress@@@std@@QEAAPEAPEAVAddress@@_K@Z
pdata	ENDS
;	COMDAT pdata
pdata	SEGMENT
$pdata$?allocate@?$allocator@H@std@@QEAAPEAH_K@Z DD imagerel $LN15@allocate
	DD	imagerel $LN15@allocate+114
	DD	imagerel $unwind$?allocate@?$allocator@H@std@@QEAAPEAH_K@Z
pdata	ENDS
;	COMDAT pdata
pdata	SEGMENT
$pdata$?_Xlen@?$vector@PEAVPerson@@V?$allocator@PEAVPerson@@@std@@@std@@IEBAXXZ DD imagerel $LN4@Xlen
	DD	imagerel $LN4@Xlen+18
	DD	imagerel $unwind$?_Xlen@?$vector@PEAVPerson@@V?$allocator@PEAVPerson@@@std@@@std@@IEBAXXZ
pdata	ENDS
;	COMDAT pdata
pdata	SEGMENT
$pdata$?_Reallocate@?$vector@PEAVAddress@@V?$allocator@PEAVAddress@@@std@@@std@@IEAAX_K@Z DD imagerel $LN206@Reallocate
	DD	imagerel $LN206@Reallocate+298
	DD	imagerel $unwind$?_Reallocate@?$vector@PEAVAddress@@V?$allocator@PEAVAddress@@@std@@@std@@IEAAX_K@Z
pdata	ENDS
;	COMDAT pdata
pdata	SEGMENT
$pdata$?_Xlen@?$vector@PEAVAddress@@V?$allocator@PEAVAddress@@@std@@@std@@IEBAXXZ DD imagerel $LN4@Xlen
	DD	imagerel $LN4@Xlen+18
	DD	imagerel $unwind$?_Xlen@?$vector@PEAVAddress@@V?$allocator@PEAVAddress@@@std@@@std@@IEBAXXZ
pdata	ENDS
;	COMDAT pdata
pdata	SEGMENT
$pdata$?allocate@?$_Wrap_alloc@V?$allocator@PEAVPerson@@@std@@@std@@QEAAPEAPEAVPerson@@_K@Z DD imagerel $LN18@allocate
	DD	imagerel $LN18@allocate+114
	DD	imagerel $unwind$?allocate@?$_Wrap_alloc@V?$allocator@PEAVPerson@@@std@@@std@@QEAAPEAPEAVPerson@@_K@Z
pdata	ENDS
;	COMDAT pdata
pdata	SEGMENT
$pdata$?allocate@?$_Wrap_alloc@V?$allocator@PEAVAddress@@@std@@@std@@QEAAPEAPEAVAddress@@_K@Z DD imagerel $LN18@allocate
	DD	imagerel $LN18@allocate+114
	DD	imagerel $unwind$?allocate@?$_Wrap_alloc@V?$allocator@PEAVAddress@@@std@@@std@@QEAAPEAPEAVAddress@@_K@Z
pdata	ENDS
;	COMDAT pdata
pdata	SEGMENT
$pdata$?_Xlen@?$vector@HV?$allocator@H@std@@@std@@IEBAXXZ DD imagerel $LN4@Xlen
	DD	imagerel $LN4@Xlen+18
	DD	imagerel $unwind$?_Xlen@?$vector@HV?$allocator@H@std@@@std@@IEBAXXZ
pdata	ENDS
;	COMDAT pdata
pdata	SEGMENT
$pdata$?allocate@?$_Wrap_alloc@V?$allocator@H@std@@@std@@QEAAPEAH_K@Z DD imagerel $LN18@allocate
	DD	imagerel $LN18@allocate+114
	DD	imagerel $unwind$?allocate@?$_Wrap_alloc@V?$allocator@H@std@@@std@@QEAAPEAH_K@Z
pdata	ENDS
;	COMDAT pdata
pdata	SEGMENT
$pdata$?_Xran@?$bitset@$0BA@@std@@AEBAXXZ DD imagerel $LN4@Xran
	DD	imagerel $LN4@Xran+18
	DD	imagerel $unwind$?_Xran@?$bitset@$0BA@@std@@AEBAXXZ
pdata	ENDS
;	COMDAT pdata
pdata	SEGMENT
$pdata$?_Construct@?$basic_string@DU?$char_traits@D@std@@V?$allocator@D@2@@std@@QEAAXPEAD0Urandom_access_iterator_tag@2@@Z DD imagerel $LN5@Construct
	DD	imagerel $LN5@Construct+22
	DD	imagerel $unwind$?_Construct@?$basic_string@DU?$char_traits@D@std@@V?$allocator@D@2@@std@@QEAAXPEAD0Urandom_access_iterator_tag@2@@Z
pdata	ENDS
;	COMDAT pdata
pdata	SEGMENT
$pdata$?reserve@?$basic_string@DU?$char_traits@D@std@@V?$allocator@D@2@@std@@QEAAX_K@Z DD imagerel $LN139@reserve
	DD	imagerel $LN139@reserve+77
	DD	imagerel $unwind$?reserve@?$basic_string@DU?$char_traits@D@std@@V?$allocator@D@2@@std@@QEAAX_K@Z
pdata	ENDS
;	COMDAT pdata
pdata	SEGMENT
$pdata$?_Buy@?$vector@V?$basic_string@DU?$char_traits@D@std@@V?$allocator@D@2@@std@@V?$allocator@V?$basic_string@DU?$char_traits@D@std@@V?$allocator@D@2@@std@@@2@@std@@IEAA_N_K@Z DD imagerel $LN108@Buy
	DD	imagerel $LN108@Buy+99
	DD	imagerel $unwind$?_Buy@?$vector@V?$basic_string@DU?$char_traits@D@std@@V?$allocator@D@2@@std@@V?$allocator@V?$basic_string@DU?$char_traits@D@std@@V?$allocator@D@2@@std@@@2@@std@@IEAA_N_K@Z
pdata	ENDS
;	COMDAT pdata
pdata	SEGMENT
$pdata$?_Buy@?$vector@PEAVPerson@@V?$allocator@PEAVPerson@@@std@@@std@@IEAA_N_K@Z DD imagerel $LN124@Buy
	DD	imagerel $LN124@Buy+56
	DD	imagerel $unwind$?_Buy@?$vector@PEAVPerson@@V?$allocator@PEAVPerson@@@std@@@std@@IEAA_N_K@Z
pdata	ENDS
;	COMDAT pdata
pdata	SEGMENT
$pdata$0$?_Buy@?$vector@PEAVPerson@@V?$allocator@PEAVPerson@@@std@@@std@@IEAA_N_K@Z DD imagerel $LN124@Buy+56
	DD	imagerel $LN124@Buy+149
	DD	imagerel $chain$0$?_Buy@?$vector@PEAVPerson@@V?$allocator@PEAVPerson@@@std@@@std@@IEAA_N_K@Z
pdata	ENDS
;	COMDAT pdata
pdata	SEGMENT
$pdata$1$?_Buy@?$vector@PEAVPerson@@V?$allocator@PEAVPerson@@@std@@@std@@IEAA_N_K@Z DD imagerel $LN124@Buy+149
	DD	imagerel $LN124@Buy+155
	DD	imagerel $chain$1$?_Buy@?$vector@PEAVPerson@@V?$allocator@PEAVPerson@@@std@@@std@@IEAA_N_K@Z
pdata	ENDS
;	COMDAT pdata
pdata	SEGMENT
$pdata$?_Buy@?$vector@PEAVAddress@@V?$allocator@PEAVAddress@@@std@@@std@@IEAA_N_K@Z DD imagerel $LN108@Buy
	DD	imagerel $LN108@Buy+99
	DD	imagerel $unwind$?_Buy@?$vector@PEAVAddress@@V?$allocator@PEAVAddress@@@std@@@std@@IEAA_N_K@Z
pdata	ENDS
;	COMDAT pdata
pdata	SEGMENT
$pdata$?_Reserve@?$vector@PEAVAddress@@V?$allocator@PEAVAddress@@@std@@@std@@IEAAX_K@Z DD imagerel $LN135@Reserve
	DD	imagerel $LN135@Reserve+132
	DD	imagerel $unwind$?_Reserve@?$vector@PEAVAddress@@V?$allocator@PEAVAddress@@@std@@@std@@IEAAX_K@Z
pdata	ENDS
;	COMDAT pdata
pdata	SEGMENT
$pdata$?_Buy@?$vector@HV?$allocator@H@std@@@std@@IEAA_N_K@Z DD imagerel $LN124@Buy
	DD	imagerel $LN124@Buy+56
	DD	imagerel $unwind$?_Buy@?$vector@HV?$allocator@H@std@@@std@@IEAA_N_K@Z
pdata	ENDS
;	COMDAT pdata
pdata	SEGMENT
$pdata$0$?_Buy@?$vector@HV?$allocator@H@std@@@std@@IEAA_N_K@Z DD imagerel $LN124@Buy+56
	DD	imagerel $LN124@Buy+149
	DD	imagerel $chain$0$?_Buy@?$vector@HV?$allocator@H@std@@@std@@IEAA_N_K@Z
pdata	ENDS
;	COMDAT pdata
pdata	SEGMENT
$pdata$1$?_Buy@?$vector@HV?$allocator@H@std@@@std@@IEAA_N_K@Z DD imagerel $LN124@Buy+149
	DD	imagerel $LN124@Buy+155
	DD	imagerel $chain$1$?_Buy@?$vector@HV?$allocator@H@std@@@std@@IEAA_N_K@Z
pdata	ENDS
;	COMDAT pdata
pdata	SEGMENT
$pdata$?test@?$bitset@$0BA@@std@@QEBA_N_K@Z DD imagerel $LN11@test
	DD	imagerel $LN11@test+54
	DD	imagerel $unwind$?test@?$bitset@$0BA@@std@@QEBA_N_K@Z
pdata	ENDS
;	COMDAT pdata
pdata	SEGMENT
$pdata$??$_Destroy_range1@V?$allocator@V?$basic_string@DU?$char_traits@D@std@@V?$allocator@D@2@@std@@@std@@PEAV?$basic_string@DU?$char_traits@D@std@@V?$allocator@D@2@@2@@std@@YAXPEAV?$basic_string@DU?$char_traits@D@std@@V?$allocator@D@2@@0@0AEAU?$_Wrap_alloc@V?$allocator@V?$basic_string@DU?$char_traits@D@std@@V?$allocator@D@2@@std@@@std@@@0@U?$integral_constant@_N$0A@@0@@Z DD imagerel $LN24@Destroy_ra
	DD	imagerel $LN24@Destroy_ra+49
	DD	imagerel $unwind$??$_Destroy_range1@V?$allocator@V?$basic_string@DU?$char_traits@D@std@@V?$allocator@D@2@@std@@@std@@PEAV?$basic_string@DU?$char_traits@D@std@@V?$allocator@D@2@@2@@std@@YAXPEAV?$basic_string@DU?$char_traits@D@std@@V?$allocator@D@2@@0@0AEAU?$_Wrap_alloc@V?$allocator@V?$basic_string@DU?$char_traits@D@std@@V?$allocator@D@2@@std@@@std@@@0@U?$integral_constant@_N$0A@@0@@Z
pdata	ENDS
;	COMDAT pdata
pdata	SEGMENT
$pdata$??$_Uninitialized_move@PEAV?$basic_string@DU?$char_traits@D@std@@V?$allocator@D@2@@std@@PEAV12@V?$allocator@V?$basic_string@DU?$char_traits@D@std@@V?$allocator@D@2@@std@@@2@@std@@YAPEAV?$basic_string@DU?$char_traits@D@std@@V?$allocator@D@2@@0@PEAV10@00AEAU?$_Wrap_alloc@V?$allocator@V?$basic_string@DU?$char_traits@D@std@@V?$allocator@D@2@@std@@@std@@@0@@Z DD imagerel $LN19@Uninitiali
	DD	imagerel $LN19@Uninitiali+14
	DD	imagerel $unwind$??$_Uninitialized_move@PEAV?$basic_string@DU?$char_traits@D@std@@V?$allocator@D@2@@std@@PEAV12@V?$allocator@V?$basic_string@DU?$char_traits@D@std@@V?$allocator@D@2@@std@@@2@@std@@YAPEAV?$basic_string@DU?$char_traits@D@std@@V?$allocator@D@2@@0@PEAV10@00AEAU?$_Wrap_alloc@V?$allocator@V?$basic_string@DU?$char_traits@D@std@@V?$allocator@D@2@@std@@@std@@@0@@Z
pdata	ENDS
;	COMDAT pdata
pdata	SEGMENT
$pdata$??$rotate@V?$_Vector_iterator@V?$_Vector_val@U?$_Simple_types@V?$basic_string@DU?$char_traits@D@std@@V?$allocator@D@2@@std@@@std@@@std@@@std@@@std@@YA?AV?$_Vector_iterator@V?$_Vector_val@U?$_Simple_types@V?$basic_string@DU?$char_traits@D@std@@V?$allocator@D@2@@std@@@std@@@std@@@0@V10@00@Z DD imagerel $LN25@rotate
	DD	imagerel $LN25@rotate+75
	DD	imagerel $unwind$??$rotate@V?$_Vector_iterator@V?$_Vector_val@U?$_Simple_types@V?$basic_string@DU?$char_traits@D@std@@V?$allocator@D@2@@std@@@std@@@std@@@std@@@std@@YA?AV?$_Vector_iterator@V?$_Vector_val@U?$_Simple_types@V?$basic_string@DU?$char_traits@D@std@@V?$allocator@D@2@@std@@@std@@@std@@@0@V10@00@Z
pdata	ENDS
;	COMDAT pdata
pdata	SEGMENT
$pdata$??$emplace_back@V?$basic_string@DU?$char_traits@D@std@@V?$allocator@D@2@@std@@@?$vector@V?$basic_string@DU?$char_traits@D@std@@V?$allocator@D@2@@std@@V?$allocator@V?$basic_string@DU?$char_traits@D@std@@V?$allocator@D@2@@std@@@2@@std@@QEAAX$$QEAV?$basic_string@DU?$char_traits@D@std@@V?$allocator@D@2@@1@@Z DD imagerel $LN369@emplace_ba
	DD	imagerel $LN369@emplace_ba+189
	DD	imagerel $unwind$??$emplace_back@V?$basic_string@DU?$char_traits@D@std@@V?$allocator@D@2@@std@@@?$vector@V?$basic_string@DU?$char_traits@D@std@@V?$allocator@D@2@@std@@V?$allocator@V?$basic_string@DU?$char_traits@D@std@@V?$allocator@D@2@@std@@@2@@std@@QEAAX$$QEAV?$basic_string@DU?$char_traits@D@std@@V?$allocator@D@2@@1@@Z
pdata	ENDS
;	COMDAT pdata
pdata	SEGMENT
$pdata$??$_Construct@PEBV?$basic_string@DU?$char_traits@D@std@@V?$allocator@D@2@@std@@@?$vector@V?$basic_string@DU?$char_traits@D@std@@V?$allocator@D@2@@std@@V?$allocator@V?$basic_string@DU?$char_traits@D@std@@V?$allocator@D@2@@std@@@2@@std@@QEAAXPEBV?$basic_string@DU?$char_traits@D@std@@V?$allocator@D@2@@1@0Uforward_iterator_tag@1@@Z DD imagerel $LN164@Construct
	DD	imagerel $LN164@Construct+152
	DD	imagerel $unwind$??$_Construct@PEBV?$basic_string@DU?$char_traits@D@std@@V?$allocator@D@2@@std@@@?$vector@V?$basic_string@DU?$char_traits@D@std@@V?$allocator@D@2@@std@@V?$allocator@V?$basic_string@DU?$char_traits@D@std@@V?$allocator@D@2@@std@@@2@@std@@QEAAXPEBV?$basic_string@DU?$char_traits@D@std@@V?$allocator@D@2@@1@0Uforward_iterator_tag@1@@Z
pdata	ENDS
;	COMDAT pdata
pdata	SEGMENT
$pdata$?catch$41@?0???$_Construct@PEBV?$basic_string@DU?$char_traits@D@std@@V?$allocator@D@2@@std@@@?$vector@V?$basic_string@DU?$char_traits@D@std@@V?$allocator@D@2@@std@@V?$allocator@V?$basic_string@DU?$char_traits@D@std@@V?$allocator@D@2@@std@@@2@@std@@QEAAXPEBV?$basic_string@DU?$char_traits@D@std@@V?$allocator@D@2@@1@0Uforward_iterator_tag@1@@Z@4HA DD imagerel ?catch$41@?0???$_Construct@PEBV?$basic_string@DU?$char_traits@D@std@@V?$allocator@D@2@@std@@@?$vector@V?$basic_string@DU?$char_traits@D@std@@V?$allocator@D@2@@std@@V?$allocator@V?$basic_string@DU?$char_traits@D@std@@V?$allocator@D@2@@std@@@2@@std@@QEAAXPEBV?$basic_string@DU?$char_traits@D@std@@V?$allocator@D@2@@1@0Uforward_iterator_tag@1@@Z@4HA
	DD	imagerel ?catch$41@?0???$_Construct@PEBV?$basic_string@DU?$char_traits@D@std@@V?$allocator@D@2@@std@@@?$vector@V?$basic_string@DU?$char_traits@D@std@@V?$allocator@D@2@@std@@V?$allocator@V?$basic_string@DU?$char_traits@D@std@@V?$allocator@D@2@@std@@@2@@std@@QEAAXPEBV?$basic_string@DU?$char_traits@D@std@@V?$allocator@D@2@@1@0Uforward_iterator_tag@1@@Z@4HA+32
	DD	imagerel $unwind$?catch$41@?0???$_Construct@PEBV?$basic_string@DU?$char_traits@D@std@@V?$allocator@D@2@@std@@@?$vector@V?$basic_string@DU?$char_traits@D@std@@V?$allocator@D@2@@std@@V?$allocator@V?$basic_string@DU?$char_traits@D@std@@V?$allocator@D@2@@std@@@2@@std@@QEAAXPEBV?$basic_string@DU?$char_traits@D@std@@V?$allocator@D@2@@1@0Uforward_iterator_tag@1@@Z@4HA
pdata	ENDS
;	COMDAT pdata
pdata	SEGMENT
$pdata$??$_Construct@PEBQEAVPerson@@@?$vector@PEAVPerson@@V?$allocator@PEAVPerson@@@std@@@std@@QEAAXPEBQEAVPerson@@0Uforward_iterator_tag@1@@Z DD imagerel $LN286@Construct
	DD	imagerel $LN286@Construct+201
	DD	imagerel $unwind$??$_Construct@PEBQEAVPerson@@@?$vector@PEAVPerson@@V?$allocator@PEAVPerson@@@std@@@std@@QEAAXPEBQEAVPerson@@0Uforward_iterator_tag@1@@Z
pdata	ENDS
;	COMDAT pdata
pdata	SEGMENT
$pdata$??$rotate@V?$_Vector_iterator@V?$_Vector_val@U?$_Simple_types@PEAVAddress@@@std@@@std@@@std@@@std@@YA?AV?$_Vector_iterator@V?$_Vector_val@U?$_Simple_types@PEAVAddress@@@std@@@std@@@0@V10@00@Z DD imagerel $LN25@rotate
	DD	imagerel $LN25@rotate+75
	DD	imagerel $unwind$??$rotate@V?$_Vector_iterator@V?$_Vector_val@U?$_Simple_types@PEAVAddress@@@std@@@std@@@std@@@std@@YA?AV?$_Vector_iterator@V?$_Vector_val@U?$_Simple_types@PEAVAddress@@@std@@@std@@@0@V10@00@Z
pdata	ENDS
;	COMDAT pdata
pdata	SEGMENT
$pdata$??$emplace_back@PEAVAddress@@@?$vector@PEAVAddress@@V?$allocator@PEAVAddress@@@std@@@std@@QEAAX$$QEAPEAVAddress@@@Z DD imagerel $LN225@emplace_ba
	DD	imagerel $LN225@emplace_ba+168
	DD	imagerel $unwind$??$emplace_back@PEAVAddress@@@?$vector@PEAVAddress@@V?$allocator@PEAVAddress@@@std@@@std@@QEAAX$$QEAPEAVAddress@@@Z
pdata	ENDS
;	COMDAT pdata
pdata	SEGMENT
$pdata$??$_Construct@PEBQEAVAddress@@@?$vector@PEAVAddress@@V?$allocator@PEAVAddress@@@std@@@std@@QEAAXPEBQEAVAddress@@0Uforward_iterator_tag@1@@Z DD imagerel $LN271@Construct
	DD	imagerel $LN271@Construct+143
	DD	imagerel $unwind$??$_Construct@PEBQEAVAddress@@@?$vector@PEAVAddress@@V?$allocator@PEAVAddress@@@std@@@std@@QEAAXPEBQEAVAddress@@0Uforward_iterator_tag@1@@Z
pdata	ENDS
;	COMDAT pdata
pdata	SEGMENT
$pdata$??$_Construct@PEBH@?$vector@HV?$allocator@H@std@@@std@@QEAAXPEBH0Uforward_iterator_tag@1@@Z DD imagerel $LN286@Construct
	DD	imagerel $LN286@Construct+201
	DD	imagerel $unwind$??$_Construct@PEBH@?$vector@HV?$allocator@H@std@@@std@@QEAAXPEBH0Uforward_iterator_tag@1@@Z
pdata	ENDS
;	COMDAT pdata
pdata	SEGMENT
$pdata$??$getline@DU?$char_traits@D@std@@V?$allocator@D@2@@std@@YAAEAV?$basic_istream@DU?$char_traits@D@std@@@0@$$QEAV10@AEAV?$basic_string@DU?$char_traits@D@std@@V?$allocator@D@2@@0@D@Z DD imagerel $LN318@getline
	DD	imagerel $LN318@getline+513
	DD	imagerel $unwind$??$getline@DU?$char_traits@D@std@@V?$allocator@D@2@@std@@YAAEAV?$basic_istream@DU?$char_traits@D@std@@@0@$$QEAV10@AEAV?$basic_string@DU?$char_traits@D@std@@V?$allocator@D@2@@0@D@Z
pdata	ENDS
;	COMDAT pdata
pdata	SEGMENT
$pdata$?catch$63@?0???$getline@DU?$char_traits@D@std@@V?$allocator@D@2@@std@@YAAEAV?$basic_istream@DU?$char_traits@D@std@@@0@$$QEAV10@AEAV?$basic_string@DU?$char_traits@D@std@@V?$allocator@D@2@@0@D@Z@4HA DD imagerel ?catch$63@?0???$getline@DU?$char_traits@D@std@@V?$allocator@D@2@@std@@YAAEAV?$basic_istream@DU?$char_traits@D@std@@@0@$$QEAV10@AEAV?$basic_string@DU?$char_traits@D@std@@V?$allocator@D@2@@0@D@Z@4HA
	DD	imagerel ?catch$63@?0???$getline@DU?$char_traits@D@std@@V?$allocator@D@2@@std@@YAAEAV?$basic_istream@DU?$char_traits@D@std@@@0@$$QEAV10@AEAV?$basic_string@DU?$char_traits@D@std@@V?$allocator@D@2@@0@D@Z@4HA+56
	DD	imagerel $unwind$?catch$63@?0???$getline@DU?$char_traits@D@std@@V?$allocator@D@2@@std@@YAAEAV?$basic_istream@DU?$char_traits@D@std@@@0@$$QEAV10@AEAV?$basic_string@DU?$char_traits@D@std@@V?$allocator@D@2@@0@D@Z@4HA
pdata	ENDS
;	COMDAT pdata
pdata	SEGMENT
$pdata$??$to_string@DU?$char_traits@D@std@@V?$allocator@D@2@@?$bitset@$0BA@@std@@QEBA?AV?$basic_string@DU?$char_traits@D@std@@V?$allocator@D@2@@1@DD@Z DD imagerel $LN648@to_string
	DD	imagerel $LN648@to_string+516
	DD	imagerel $unwind$??$to_string@DU?$char_traits@D@std@@V?$allocator@D@2@@?$bitset@$0BA@@std@@QEBA?AV?$basic_string@DU?$char_traits@D@std@@V?$allocator@D@2@@1@DD@Z
pdata	ENDS
;	COMDAT pdata
pdata	SEGMENT
$pdata$?dtor$0@?0???$to_string@DU?$char_traits@D@std@@V?$allocator@D@2@@?$bitset@$0BA@@std@@QEBA?AV?$basic_string@DU?$char_traits@D@std@@V?$allocator@D@2@@1@DD@Z@4HA DD imagerel ?dtor$0@?0???$to_string@DU?$char_traits@D@std@@V?$allocator@D@2@@?$bitset@$0BA@@std@@QEBA?AV?$basic_string@DU?$char_traits@D@std@@V?$allocator@D@2@@1@DD@Z@4HA
	DD	imagerel ?dtor$0@?0???$to_string@DU?$char_traits@D@std@@V?$allocator@D@2@@?$bitset@$0BA@@std@@QEBA?AV?$basic_string@DU?$char_traits@D@std@@V?$allocator@D@2@@1@DD@Z@4HA+38
	DD	imagerel $unwind$?dtor$0@?0???$to_string@DU?$char_traits@D@std@@V?$allocator@D@2@@?$bitset@$0BA@@std@@QEBA?AV?$basic_string@DU?$char_traits@D@std@@V?$allocator@D@2@@1@DD@Z@4HA
pdata	ENDS
;	COMDAT pdata
pdata	SEGMENT
$pdata$??$?0DU?$char_traits@D@std@@V?$allocator@D@1@@?$bitset@$0BA@@std@@QEAA@AEBV?$basic_string@DU?$char_traits@D@std@@V?$allocator@D@2@@1@_K1DD@Z DD imagerel $LN151@bitset
	DD	imagerel $LN151@bitset+215
	DD	imagerel $unwind$??$?0DU?$char_traits@D@std@@V?$allocator@D@1@@?$bitset@$0BA@@std@@QEAA@AEBV?$basic_string@DU?$char_traits@D@std@@V?$allocator@D@2@@1@_K1DD@Z
pdata	ENDS
;	COMDAT pdata
pdata	SEGMENT
$pdata$??$?0PEADX@?$basic_string@DU?$char_traits@D@std@@V?$allocator@D@2@@std@@QEAA@PEAD0AEBV?$allocator@D@1@@Z DD imagerel $LN138@allocator
	DD	imagerel $LN138@allocator+50
	DD	imagerel $unwind$??$?0PEADX@?$basic_string@DU?$char_traits@D@std@@V?$allocator@D@2@@std@@QEAA@PEAD0AEBV?$allocator@D@1@@Z
pdata	ENDS
;	COMDAT pdata
pdata	SEGMENT
$pdata$??$?5DU?$char_traits@D@std@@V?$allocator@D@1@@std@@YAAEAV?$basic_istream@DU?$char_traits@D@std@@@0@$$QEAV10@AEAV?$basic_string@DU?$char_traits@D@std@@V?$allocator@D@2@@0@@Z DD imagerel $LN335@operator
	DD	imagerel $LN335@operator+613
	DD	imagerel $unwind$??$?5DU?$char_traits@D@std@@V?$allocator@D@1@@std@@YAAEAV?$basic_istream@DU?$char_traits@D@std@@@0@$$QEAV10@AEAV?$basic_string@DU?$char_traits@D@std@@V?$allocator@D@2@@0@@Z
pdata	ENDS
;	COMDAT pdata
pdata	SEGMENT
$pdata$?catch$66@?0???$?5DU?$char_traits@D@std@@V?$allocator@D@1@@std@@YAAEAV?$basic_istream@DU?$char_traits@D@std@@@0@$$QEAV10@AEAV?$basic_string@DU?$char_traits@D@std@@V?$allocator@D@2@@0@@Z@4HA DD imagerel ?catch$66@?0???$?5DU?$char_traits@D@std@@V?$allocator@D@1@@std@@YAAEAV?$basic_istream@DU?$char_traits@D@std@@@0@$$QEAV10@AEAV?$basic_string@DU?$char_traits@D@std@@V?$allocator@D@2@@0@@Z@4HA
	DD	imagerel ?catch$66@?0???$?5DU?$char_traits@D@std@@V?$allocator@D@1@@std@@YAAEAV?$basic_istream@DU?$char_traits@D@std@@@0@$$QEAV10@AEAV?$basic_string@DU?$char_traits@D@std@@V?$allocator@D@2@@0@@Z@4HA+56
	DD	imagerel $unwind$?catch$66@?0???$?5DU?$char_traits@D@std@@V?$allocator@D@1@@std@@YAAEAV?$basic_istream@DU?$char_traits@D@std@@@0@$$QEAV10@AEAV?$basic_string@DU?$char_traits@D@std@@V?$allocator@D@2@@0@@Z@4HA
pdata	ENDS
;	COMDAT pdata
pdata	SEGMENT
$pdata$??0bad_cast@std@@QEAA@AEBV01@@Z DD imagerel $LN6@bad_cast
	DD	imagerel $LN6@bad_cast+64
	DD	imagerel $unwind$??0bad_cast@std@@QEAA@AEBV01@@Z
pdata	ENDS
;	COMDAT pdata
pdata	SEGMENT
$pdata$??$_Destroy_range@V?$allocator@V?$basic_string@DU?$char_traits@D@std@@V?$allocator@D@2@@std@@@std@@PEAV?$basic_string@DU?$char_traits@D@std@@V?$allocator@D@2@@2@@std@@YAXPEAV?$basic_string@DU?$char_traits@D@std@@V?$allocator@D@2@@0@0AEAU?$_Wrap_alloc@V?$allocator@V?$basic_string@DU?$char_traits@D@std@@V?$allocator@D@2@@std@@@std@@@0@@Z DD imagerel $LN26@Destroy_ra
	DD	imagerel $LN26@Destroy_ra+49
	DD	imagerel $unwind$??$_Destroy_range@V?$allocator@V?$basic_string@DU?$char_traits@D@std@@V?$allocator@D@2@@std@@@std@@PEAV?$basic_string@DU?$char_traits@D@std@@V?$allocator@D@2@@2@@std@@YAXPEAV?$basic_string@DU?$char_traits@D@std@@V?$allocator@D@2@@0@0AEAU?$_Wrap_alloc@V?$allocator@V?$basic_string@DU?$char_traits@D@std@@V?$allocator@D@2@@std@@@std@@@0@@Z
pdata	ENDS
;	COMDAT pdata
pdata	SEGMENT
$pdata$??$_Umove@PEAV?$basic_string@DU?$char_traits@D@std@@V?$allocator@D@2@@std@@@?$vector@V?$basic_string@DU?$char_traits@D@std@@V?$allocator@D@2@@std@@V?$allocator@V?$basic_string@DU?$char_traits@D@std@@V?$allocator@D@2@@std@@@2@@std@@IEAAPEAV?$basic_string@DU?$char_traits@D@std@@V?$allocator@D@2@@1@PEAV21@00@Z DD imagerel $LN27@Umove
	DD	imagerel $LN27@Umove+26
	DD	imagerel $unwind$??$_Umove@PEAV?$basic_string@DU?$char_traits@D@std@@V?$allocator@D@2@@std@@@?$vector@V?$basic_string@DU?$char_traits@D@std@@V?$allocator@D@2@@std@@V?$allocator@V?$basic_string@DU?$char_traits@D@std@@V?$allocator@D@2@@std@@@2@@std@@IEAAPEAV?$basic_string@DU?$char_traits@D@std@@V?$allocator@D@2@@1@PEAV21@00@Z
pdata	ENDS
;	COMDAT pdata
pdata	SEGMENT
$pdata$??$emplace@V?$basic_string@DU?$char_traits@D@std@@V?$allocator@D@2@@std@@@?$vector@V?$basic_string@DU?$char_traits@D@std@@V?$allocator@D@2@@std@@V?$allocator@V?$basic_string@DU?$char_traits@D@std@@V?$allocator@D@2@@std@@@2@@std@@QEAA?AV?$_Vector_iterator@V?$_Vector_val@U?$_Simple_types@V?$basic_string@DU?$char_traits@D@std@@V?$allocator@D@2@@std@@@std@@@std@@@1@V?$_Vector_const_iterator@V?$_Vector_val@U?$_Simple_types@V?$basic_string@DU?$char_traits@D@std@@V?$allocator@D@2@@std@@@std@@@std@@@1@$$QEAV?$basic_string@DU?$char_traits@D@std@@V?$allocator@D@2@@1@@Z DD imagerel $LN531@emplace
	DD	imagerel $LN531@emplace+247
	DD	imagerel $unwind$??$emplace@V?$basic_string@DU?$char_traits@D@std@@V?$allocator@D@2@@std@@@?$vector@V?$basic_string@DU?$char_traits@D@std@@V?$allocator@D@2@@std@@V?$allocator@V?$basic_string@DU?$char_traits@D@std@@V?$allocator@D@2@@std@@@2@@std@@QEAA?AV?$_Vector_iterator@V?$_Vector_val@U?$_Simple_types@V?$basic_string@DU?$char_traits@D@std@@V?$allocator@D@2@@std@@@std@@@std@@@1@V?$_Vector_const_iterator@V?$_Vector_val@U?$_Simple_types@V?$basic_string@DU?$char_traits@D@std@@V?$allocator@D@2@@std@@@std@@@std@@@1@$$QEAV?$basic_string@DU?$char_traits@D@std@@V?$allocator@D@2@@1@@Z
pdata	ENDS
;	COMDAT pdata
pdata	SEGMENT
$pdata$??$emplace@PEAVAddress@@@?$vector@PEAVAddress@@V?$allocator@PEAVAddress@@@std@@@std@@QEAA?AV?$_Vector_iterator@V?$_Vector_val@U?$_Simple_types@PEAVAddress@@@std@@@std@@@1@V?$_Vector_const_iterator@V?$_Vector_val@U?$_Simple_types@PEAVAddress@@@std@@@std@@@1@$$QEAPEAVAddress@@@Z DD imagerel $LN387@emplace
	DD	imagerel $LN387@emplace+230
	DD	imagerel $unwind$??$emplace@PEAVAddress@@@?$vector@PEAVAddress@@V?$allocator@PEAVAddress@@@std@@@std@@QEAA?AV?$_Vector_iterator@V?$_Vector_val@U?$_Simple_types@PEAVAddress@@@std@@@std@@@1@V?$_Vector_const_iterator@V?$_Vector_val@U?$_Simple_types@PEAVAddress@@@std@@@std@@@1@$$QEAPEAVAddress@@@Z
pdata	ENDS
;	COMDAT pdata
pdata	SEGMENT
$pdata$??$getline@DU?$char_traits@D@std@@V?$allocator@D@2@@std@@YAAEAV?$basic_istream@DU?$char_traits@D@std@@@0@AEAV10@AEAV?$basic_string@DU?$char_traits@D@std@@V?$allocator@D@2@@0@@Z DD imagerel $LN7@getline
	DD	imagerel $LN7@getline+59
	DD	imagerel $unwind$??$getline@DU?$char_traits@D@std@@V?$allocator@D@2@@std@@YAAEAV?$basic_istream@DU?$char_traits@D@std@@@0@AEAV10@AEAV?$basic_string@DU?$char_traits@D@std@@V?$allocator@D@2@@0@@Z
pdata	ENDS
;	COMDAT pdata
pdata	SEGMENT
$pdata$??$?6DU?$char_traits@D@std@@$0BA@@std@@YAAEAV?$basic_ostream@DU?$char_traits@D@std@@@0@AEAV10@AEBV?$bitset@$0BA@@0@@Z DD imagerel $LN130@operator
	DD	imagerel $LN130@operator+286
	DD	imagerel $unwind$??$?6DU?$char_traits@D@std@@$0BA@@std@@YAAEAV?$basic_ostream@DU?$char_traits@D@std@@@0@AEAV10@AEBV?$bitset@$0BA@@0@@Z
pdata	ENDS
;	COMDAT pdata
pdata	SEGMENT
$pdata$??$?5DU?$char_traits@D@std@@$0BA@@std@@YAAEAV?$basic_istream@DU?$char_traits@D@std@@@0@AEAV10@AEAV?$bitset@$0BA@@0@@Z DD imagerel $LN858@operator
	DD	imagerel $LN858@operator+1185
	DD	imagerel $unwind$??$?5DU?$char_traits@D@std@@$0BA@@std@@YAAEAV?$basic_istream@DU?$char_traits@D@std@@@0@AEAV10@AEAV?$bitset@$0BA@@0@@Z
pdata	ENDS
;	COMDAT pdata
pdata	SEGMENT
$pdata$?catch$172@?0???$?5DU?$char_traits@D@std@@$0BA@@std@@YAAEAV?$basic_istream@DU?$char_traits@D@std@@@0@AEAV10@AEAV?$bitset@$0BA@@0@@Z@4HA DD imagerel ?catch$172@?0???$?5DU?$char_traits@D@std@@$0BA@@std@@YAAEAV?$basic_istream@DU?$char_traits@D@std@@@0@AEAV10@AEAV?$bitset@$0BA@@0@@Z@4HA
	DD	imagerel ?catch$172@?0???$?5DU?$char_traits@D@std@@$0BA@@std@@YAAEAV?$basic_istream@DU?$char_traits@D@std@@@0@AEAV10@AEAV?$bitset@$0BA@@0@@Z@4HA+56
	DD	imagerel $unwind$?catch$172@?0???$?5DU?$char_traits@D@std@@$0BA@@std@@YAAEAV?$basic_istream@DU?$char_traits@D@std@@@0@AEAV10@AEAV?$bitset@$0BA@@0@@Z@4HA
pdata	ENDS
;	COMDAT pdata
pdata	SEGMENT
$pdata$??$endl@DU?$char_traits@D@std@@@std@@YAAEAV?$basic_ostream@DU?$char_traits@D@std@@@0@AEAV10@@Z DD imagerel $LN4@endl
	DD	imagerel $LN4@endl+57
	DD	imagerel $unwind$??$endl@DU?$char_traits@D@std@@@std@@YAAEAV?$basic_ostream@DU?$char_traits@D@std@@@0@AEAV10@@Z
pdata	ENDS
;	COMDAT pdata
pdata	SEGMENT
$pdata$??$?6DU?$char_traits@D@std@@V?$allocator@D@1@@std@@YAAEAV?$basic_ostream@DU?$char_traits@D@std@@@0@AEAV10@AEBV?$basic_string@DU?$char_traits@D@std@@V?$allocator@D@2@@0@@Z DD imagerel $LN139@operator
	DD	imagerel $LN139@operator+460
	DD	imagerel $unwind$??$?6DU?$char_traits@D@std@@V?$allocator@D@1@@std@@YAAEAV?$basic_ostream@DU?$char_traits@D@std@@@0@AEAV10@AEBV?$basic_string@DU?$char_traits@D@std@@V?$allocator@D@2@@0@@Z
pdata	ENDS
;	COMDAT pdata
pdata	SEGMENT
$pdata$?catch$15@?0???$?6DU?$char_traits@D@std@@V?$allocator@D@1@@std@@YAAEAV?$basic_ostream@DU?$char_traits@D@std@@@0@AEAV10@AEBV?$basic_string@DU?$char_traits@D@std@@V?$allocator@D@2@@0@@Z@4HA DD imagerel ?catch$15@?0???$?6DU?$char_traits@D@std@@V?$allocator@D@1@@std@@YAAEAV?$basic_ostream@DU?$char_traits@D@std@@@0@AEAV10@AEBV?$basic_string@DU?$char_traits@D@std@@V?$allocator@D@2@@0@@Z@4HA
	DD	imagerel ?catch$15@?0???$?6DU?$char_traits@D@std@@V?$allocator@D@1@@std@@YAAEAV?$basic_ostream@DU?$char_traits@D@std@@@0@AEAV10@AEBV?$basic_string@DU?$char_traits@D@std@@V?$allocator@D@2@@0@@Z@4HA+56
	DD	imagerel $unwind$?catch$15@?0???$?6DU?$char_traits@D@std@@V?$allocator@D@1@@std@@YAAEAV?$basic_ostream@DU?$char_traits@D@std@@@0@AEAV10@AEBV?$basic_string@DU?$char_traits@D@std@@V?$allocator@D@2@@0@@Z@4HA
pdata	ENDS
;	COMDAT pdata
pdata	SEGMENT
$pdata$??$?6U?$char_traits@D@std@@@std@@YAAEAV?$basic_ostream@DU?$char_traits@D@std@@@0@AEAV10@PEBD@Z DD imagerel $LN114@operator
	DD	imagerel $LN114@operator+455
	DD	imagerel $unwind$??$?6U?$char_traits@D@std@@@std@@YAAEAV?$basic_ostream@DU?$char_traits@D@std@@@0@AEAV10@PEBD@Z
pdata	ENDS
;	COMDAT pdata
pdata	SEGMENT
$pdata$?catch$8@?0???$?6U?$char_traits@D@std@@@std@@YAAEAV?$basic_ostream@DU?$char_traits@D@std@@@0@AEAV10@PEBD@Z@4HA DD imagerel ?catch$8@?0???$?6U?$char_traits@D@std@@@std@@YAAEAV?$basic_ostream@DU?$char_traits@D@std@@@0@AEAV10@PEBD@Z@4HA
	DD	imagerel ?catch$8@?0???$?6U?$char_traits@D@std@@@std@@YAAEAV?$basic_ostream@DU?$char_traits@D@std@@@0@AEAV10@PEBD@Z@4HA+56
	DD	imagerel $unwind$?catch$8@?0???$?6U?$char_traits@D@std@@@std@@YAAEAV?$basic_ostream@DU?$char_traits@D@std@@@0@AEAV10@PEBD@Z@4HA
pdata	ENDS
;	COMDAT pdata
pdata	SEGMENT
$pdata$??$_Integral_to_string@DH@std@@YA?AV?$basic_string@DU?$char_traits@D@std@@V?$allocator@D@2@@0@H@Z DD imagerel $LN167@Integral_t
	DD	imagerel $LN167@Integral_t+220
	DD	imagerel $unwind$??$_Integral_to_string@DH@std@@YA?AV?$basic_string@DU?$char_traits@D@std@@V?$allocator@D@2@@0@H@Z
pdata	ENDS
;	COMDAT pdata
pdata	SEGMENT
$pdata$??$use_facet@V?$ctype@D@std@@@std@@YAAEBV?$ctype@D@0@AEBVlocale@0@@Z DD imagerel $LN27@use_facet
	DD	imagerel $LN27@use_facet+300
	DD	imagerel $unwind$??$use_facet@V?$ctype@D@std@@@std@@YAAEBV?$ctype@D@0@AEBVlocale@0@@Z
pdata	ENDS
;	COMDAT pdata
pdata	SEGMENT
$pdata$?allocate@?$allocator@D@std@@QEAAPEAD_K@Z DD imagerel $LN15@allocate
	DD	imagerel $LN15@allocate+84
	DD	imagerel $unwind$?allocate@?$allocator@D@std@@QEAAPEAD_K@Z
pdata	ENDS
;	COMDAT pdata
pdata	SEGMENT
$pdata$?allocate@?$_Wrap_alloc@V?$allocator@D@std@@@std@@QEAAPEAD_K@Z DD imagerel $LN18@allocate
	DD	imagerel $LN18@allocate+84
	DD	imagerel $unwind$?allocate@?$_Wrap_alloc@V?$allocator@D@std@@@std@@QEAAPEAD_K@Z
pdata	ENDS
;	COMDAT pdata
pdata	SEGMENT
$pdata$?allocate@?$allocator@V?$basic_string@DU?$char_traits@D@std@@V?$allocator@D@2@@std@@@std@@QEAAPEAV?$basic_string@DU?$char_traits@D@std@@V?$allocator@D@2@@2@_K@Z DD imagerel $LN15@allocate
	DD	imagerel $LN15@allocate+110
	DD	imagerel $unwind$?allocate@?$allocator@V?$basic_string@DU?$char_traits@D@std@@V?$allocator@D@2@@std@@@std@@QEAAPEAV?$basic_string@DU?$char_traits@D@std@@V?$allocator@D@2@@2@_K@Z
pdata	ENDS
;	COMDAT pdata
pdata	SEGMENT
$pdata$?deallocate@?$allocator@D@std@@QEAAXPEAD_K@Z DD imagerel $LN14@deallocate
	DD	imagerel $LN14@deallocate+85
	DD	imagerel $unwind$?deallocate@?$allocator@D@std@@QEAAXPEAD_K@Z
pdata	ENDS
;	COMDAT pdata
pdata	SEGMENT
$pdata$?_Copy@?$basic_string@DU?$char_traits@D@std@@V?$allocator@D@2@@std@@QEAAX_K0@Z DD imagerel $LN464@Copy
	DD	imagerel $LN464@Copy+394
	DD	imagerel $unwind$?_Copy@?$basic_string@DU?$char_traits@D@std@@V?$allocator@D@2@@std@@QEAAX_K0@Z
pdata	ENDS
;	COMDAT pdata
pdata	SEGMENT
$pdata$?catch$107@?0??_Copy@?$basic_string@DU?$char_traits@D@std@@V?$allocator@D@2@@std@@QEAAX_K0@Z@4HA DD imagerel ?catch$107@?0??_Copy@?$basic_string@DU?$char_traits@D@std@@V?$allocator@D@2@@std@@QEAAX_K0@Z@4HA
	DD	imagerel ?catch$107@?0??_Copy@?$basic_string@DU?$char_traits@D@std@@V?$allocator@D@2@@std@@QEAAX_K0@Z@4HA+47
	DD	imagerel $unwind$?catch$107@?0??_Copy@?$basic_string@DU?$char_traits@D@std@@V?$allocator@D@2@@std@@QEAAX_K0@Z@4HA
pdata	ENDS
;	COMDAT pdata
pdata	SEGMENT
$pdata$?catch$106@?0??_Copy@?$basic_string@DU?$char_traits@D@std@@V?$allocator@D@2@@std@@QEAAX_K0@Z@4HA DD imagerel ?catch$106@?0??_Copy@?$basic_string@DU?$char_traits@D@std@@V?$allocator@D@2@@std@@QEAAX_K0@Z@4HA
	DD	imagerel ?catch$106@?0??_Copy@?$basic_string@DU?$char_traits@D@std@@V?$allocator@D@2@@std@@QEAAX_K0@Z@4HA+159
	DD	imagerel $unwind$?catch$106@?0??_Copy@?$basic_string@DU?$char_traits@D@std@@V?$allocator@D@2@@std@@QEAAX_K0@Z@4HA
pdata	ENDS
;	COMDAT pdata
pdata	SEGMENT
$pdata$?_Xran@?$basic_string@DU?$char_traits@D@std@@V?$allocator@D@2@@std@@QEBAXXZ DD imagerel $LN4@Xran
	DD	imagerel $LN4@Xran+18
	DD	imagerel $unwind$?_Xran@?$basic_string@DU?$char_traits@D@std@@V?$allocator@D@2@@std@@QEBAXXZ
pdata	ENDS
;	COMDAT pdata
pdata	SEGMENT
$pdata$?deallocate@?$allocator@V?$basic_string@DU?$char_traits@D@std@@V?$allocator@D@2@@std@@@std@@QEAAXPEAV?$basic_string@DU?$char_traits@D@std@@V?$allocator@D@2@@2@_K@Z DD imagerel $LN14@deallocate
	DD	imagerel $LN14@deallocate+111
	DD	imagerel $unwind$?deallocate@?$allocator@V?$basic_string@DU?$char_traits@D@std@@V?$allocator@D@2@@std@@@std@@QEAAXPEAV?$basic_string@DU?$char_traits@D@std@@V?$allocator@D@2@@2@_K@Z
pdata	ENDS
;	COMDAT pdata
pdata	SEGMENT
$pdata$?allocate@?$_Wrap_alloc@V?$allocator@V?$basic_string@DU?$char_traits@D@std@@V?$allocator@D@2@@std@@@std@@@std@@QEAAPEAV?$basic_string@DU?$char_traits@D@std@@V?$allocator@D@2@@2@_K@Z DD imagerel $LN18@allocate
	DD	imagerel $LN18@allocate+110
	DD	imagerel $unwind$?allocate@?$_Wrap_alloc@V?$allocator@V?$basic_string@DU?$char_traits@D@std@@V?$allocator@D@2@@std@@@std@@@std@@QEAAPEAV?$basic_string@DU?$char_traits@D@std@@V?$allocator@D@2@@2@_K@Z
pdata	ENDS
;	COMDAT pdata
pdata	SEGMENT
$pdata$?deallocate@?$allocator@PEAVPerson@@@std@@QEAAXPEAPEAVPerson@@_K@Z DD imagerel $LN14@deallocate
	DD	imagerel $LN14@deallocate+114
	DD	imagerel $unwind$?deallocate@?$allocator@PEAVPerson@@@std@@QEAAXPEAPEAVPerson@@_K@Z
pdata	ENDS
;	COMDAT pdata
pdata	SEGMENT
$pdata$?deallocate@?$allocator@PEAVAddress@@@std@@QEAAXPEAPEAVAddress@@_K@Z DD imagerel $LN14@deallocate
	DD	imagerel $LN14@deallocate+114
	DD	imagerel $unwind$?deallocate@?$allocator@PEAVAddress@@@std@@QEAAXPEAPEAVAddress@@_K@Z
pdata	ENDS
;	COMDAT pdata
pdata	SEGMENT
$pdata$?deallocate@?$allocator@H@std@@QEAAXPEAH_K@Z DD imagerel $LN14@deallocate
	DD	imagerel $LN14@deallocate+114
	DD	imagerel $unwind$?deallocate@?$allocator@H@std@@QEAAXPEAH_K@Z
pdata	ENDS
;	COMDAT pdata
pdata	SEGMENT
$pdata$?erase@?$basic_string@DU?$char_traits@D@std@@V?$allocator@D@2@@std@@QEAAAEAV12@_K@Z DD imagerel $LN38@erase
	DD	imagerel $LN38@erase+62
	DD	imagerel $unwind$?erase@?$basic_string@DU?$char_traits@D@std@@V?$allocator@D@2@@std@@QEAAAEAV12@_K@Z
pdata	ENDS
;	COMDAT pdata
pdata	SEGMENT
$pdata$?erase@?$basic_string@DU?$char_traits@D@std@@V?$allocator@D@2@@std@@QEAAAEAV12@_K0@Z DD imagerel $LN94@erase
	DD	imagerel $LN94@erase+160
	DD	imagerel $unwind$?erase@?$basic_string@DU?$char_traits@D@std@@V?$allocator@D@2@@std@@QEAAAEAV12@_K0@Z
pdata	ENDS
;	COMDAT pdata
pdata	SEGMENT
$pdata$?_Swap_bx@?$basic_string@DU?$char_traits@D@std@@V?$allocator@D@2@@std@@QEAAXAEAV12@@Z DD imagerel $LN303@Swap_bx
	DD	imagerel $LN303@Swap_bx+228
	DD	imagerel $unwind$?_Swap_bx@?$basic_string@DU?$char_traits@D@std@@V?$allocator@D@2@@std@@QEAAXAEAV12@@Z
pdata	ENDS
;	COMDAT pdata
pdata	SEGMENT
$pdata$?_Grow@?$basic_string@DU?$char_traits@D@std@@V?$allocator@D@2@@std@@QEAA_N_K_N@Z DD imagerel $LN90@Grow
	DD	imagerel $LN90@Grow+131
	DD	imagerel $unwind$?_Grow@?$basic_string@DU?$char_traits@D@std@@V?$allocator@D@2@@std@@QEAA_N_K_N@Z
pdata	ENDS
;	COMDAT pdata
pdata	SEGMENT
$pdata$?_Xlen@?$basic_string@DU?$char_traits@D@std@@V?$allocator@D@2@@std@@QEBAXXZ DD imagerel $LN4@Xlen
	DD	imagerel $LN4@Xlen+18
	DD	imagerel $unwind$?_Xlen@?$basic_string@DU?$char_traits@D@std@@V?$allocator@D@2@@std@@QEBAXXZ
pdata	ENDS
;	COMDAT pdata
pdata	SEGMENT
$pdata$?_Check_offset@?$basic_string@DU?$char_traits@D@std@@V?$allocator@D@2@@std@@QEBAX_K@Z DD imagerel $LN18@Check_offs
	DD	imagerel $LN18@Check_offs+29
	DD	imagerel $unwind$?_Check_offset@?$basic_string@DU?$char_traits@D@std@@V?$allocator@D@2@@std@@QEBAX_K@Z
pdata	ENDS
;	COMDAT pdata
pdata	SEGMENT
$pdata$?deallocate@?$_Wrap_alloc@V?$allocator@D@std@@@std@@QEAAXPEAD_K@Z DD imagerel $LN17@deallocate
	DD	imagerel $LN17@deallocate+85
	DD	imagerel $unwind$?deallocate@?$_Wrap_alloc@V?$allocator@D@std@@@std@@QEAAXPEAD_K@Z
pdata	ENDS
;	COMDAT pdata
pdata	SEGMENT
$pdata$??0_Sentry_base@?$basic_ostream@DU?$char_traits@D@std@@@std@@QEAA@AEAV12@@Z DD imagerel $LN10@Sentry_bas
	DD	imagerel $LN10@Sentry_bas+44
	DD	imagerel $unwind$??0_Sentry_base@?$basic_ostream@DU?$char_traits@D@std@@@std@@QEAA@AEAV12@@Z
pdata	ENDS
;	COMDAT pdata
pdata	SEGMENT
$pdata$??1_Sentry_base@?$basic_ostream@DU?$char_traits@D@std@@@std@@QEAA@XZ DD imagerel $LN8@Sentry_bas
	DD	imagerel $LN8@Sentry_bas+45
	DD	imagerel $unwind$??1_Sentry_base@?$basic_ostream@DU?$char_traits@D@std@@@std@@QEAA@XZ
pdata	ENDS
;	COMDAT pdata
pdata	SEGMENT
$pdata$??0_Sentry_base@?$basic_istream@DU?$char_traits@D@std@@@std@@QEAA@AEAV12@@Z DD imagerel $LN10@Sentry_bas
	DD	imagerel $LN10@Sentry_bas+44
	DD	imagerel $unwind$??0_Sentry_base@?$basic_istream@DU?$char_traits@D@std@@@std@@QEAA@AEAV12@@Z
pdata	ENDS
;	COMDAT pdata
pdata	SEGMENT
$pdata$?_Destroy@?$vector@V?$basic_string@DU?$char_traits@D@std@@V?$allocator@D@2@@std@@V?$allocator@V?$basic_string@DU?$char_traits@D@std@@V?$allocator@D@2@@std@@@2@@std@@IEAAXPEAV?$basic_string@DU?$char_traits@D@std@@V?$allocator@D@2@@2@0@Z DD imagerel $LN34@Destroy
	DD	imagerel $LN34@Destroy+49
	DD	imagerel $unwind$?_Destroy@?$vector@V?$basic_string@DU?$char_traits@D@std@@V?$allocator@D@2@@std@@V?$allocator@V?$basic_string@DU?$char_traits@D@std@@V?$allocator@D@2@@std@@@2@@std@@IEAAXPEAV?$basic_string@DU?$char_traits@D@std@@V?$allocator@D@2@@2@0@Z
pdata	ENDS
;	COMDAT pdata
pdata	SEGMENT
$pdata$?_Reallocate@?$vector@V?$basic_string@DU?$char_traits@D@std@@V?$allocator@D@2@@std@@V?$allocator@V?$basic_string@DU?$char_traits@D@std@@V?$allocator@D@2@@std@@@2@@std@@IEAAX_K@Z DD imagerel $LN238@Reallocate
	DD	imagerel $LN238@Reallocate+334
	DD	imagerel $unwind$?_Reallocate@?$vector@V?$basic_string@DU?$char_traits@D@std@@V?$allocator@D@2@@std@@V?$allocator@V?$basic_string@DU?$char_traits@D@std@@V?$allocator@D@2@@std@@@2@@std@@IEAAX_K@Z
pdata	ENDS
;	COMDAT pdata
pdata	SEGMENT
$pdata$?_Xlen@?$vector@V?$basic_string@DU?$char_traits@D@std@@V?$allocator@D@2@@std@@V?$allocator@V?$basic_string@DU?$char_traits@D@std@@V?$allocator@D@2@@std@@@2@@std@@IEBAXXZ DD imagerel $LN4@Xlen
	DD	imagerel $LN4@Xlen+18
	DD	imagerel $unwind$?_Xlen@?$vector@V?$basic_string@DU?$char_traits@D@std@@V?$allocator@D@2@@std@@V?$allocator@V?$basic_string@DU?$char_traits@D@std@@V?$allocator@D@2@@std@@@2@@std@@IEBAXXZ
pdata	ENDS
;	COMDAT pdata
pdata	SEGMENT
$pdata$?deallocate@?$_Wrap_alloc@V?$allocator@V?$basic_string@DU?$char_traits@D@std@@V?$allocator@D@2@@std@@@std@@@std@@QEAAXPEAV?$basic_string@DU?$char_traits@D@std@@V?$allocator@D@2@@2@_K@Z DD imagerel $LN17@deallocate
	DD	imagerel $LN17@deallocate+111
	DD	imagerel $unwind$?deallocate@?$_Wrap_alloc@V?$allocator@V?$basic_string@DU?$char_traits@D@std@@V?$allocator@D@2@@std@@@std@@@std@@QEAAXPEAV?$basic_string@DU?$char_traits@D@std@@V?$allocator@D@2@@2@_K@Z
pdata	ENDS
;	COMDAT pdata
pdata	SEGMENT
$pdata$?deallocate@?$_Wrap_alloc@V?$allocator@PEAVPerson@@@std@@@std@@QEAAXPEAPEAVPerson@@_K@Z DD imagerel $LN17@deallocate
	DD	imagerel $LN17@deallocate+114
	DD	imagerel $unwind$?deallocate@?$_Wrap_alloc@V?$allocator@PEAVPerson@@@std@@@std@@QEAAXPEAPEAVPerson@@_K@Z
pdata	ENDS
;	COMDAT pdata
pdata	SEGMENT
$pdata$?deallocate@?$_Wrap_alloc@V?$allocator@PEAVAddress@@@std@@@std@@QEAAXPEAPEAVAddress@@_K@Z DD imagerel $LN17@deallocate
	DD	imagerel $LN17@deallocate+114
	DD	imagerel $unwind$?deallocate@?$_Wrap_alloc@V?$allocator@PEAVAddress@@@std@@@std@@QEAAXPEAPEAVAddress@@_K@Z
pdata	ENDS
;	COMDAT pdata
pdata	SEGMENT
$pdata$?deallocate@?$_Wrap_alloc@V?$allocator@H@std@@@std@@QEAAXPEAH_K@Z DD imagerel $LN17@deallocate
	DD	imagerel $LN17@deallocate+114
	DD	imagerel $unwind$?deallocate@?$_Wrap_alloc@V?$allocator@H@std@@@std@@QEAAXPEAH_K@Z
pdata	ENDS
;	COMDAT pdata
pdata	SEGMENT
$pdata$?_Assign_rv@?$basic_string@DU?$char_traits@D@std@@V?$allocator@D@2@@std@@QEAAX$$QEAV12@@Z DD imagerel $LN251@Assign_rv
	DD	imagerel $LN251@Assign_rv+129
	DD	imagerel $unwind$?_Assign_rv@?$basic_string@DU?$char_traits@D@std@@V?$allocator@D@2@@std@@QEAAX$$QEAV12@@Z
pdata	ENDS
;	COMDAT pdata
pdata	SEGMENT
$pdata$??Y?$basic_string@DU?$char_traits@D@std@@V?$allocator@D@2@@std@@QEAAAEAV01@D@Z DD imagerel $LN183@operator
	DD	imagerel $LN183@operator+46
	DD	imagerel $unwind$??Y?$basic_string@DU?$char_traits@D@std@@V?$allocator@D@2@@std@@QEAAAEAV01@D@Z
pdata	ENDS
;	COMDAT pdata
pdata	SEGMENT
$pdata$0$??Y?$basic_string@DU?$char_traits@D@std@@V?$allocator@D@2@@std@@QEAAAEAV01@D@Z DD imagerel $LN183@operator+46
	DD	imagerel $LN183@operator+151
	DD	imagerel $chain$0$??Y?$basic_string@DU?$char_traits@D@std@@V?$allocator@D@2@@std@@QEAAAEAV01@D@Z
pdata	ENDS
;	COMDAT pdata
pdata	SEGMENT
$pdata$2$??Y?$basic_string@DU?$char_traits@D@std@@V?$allocator@D@2@@std@@QEAAAEAV01@D@Z DD imagerel $LN183@operator+151
	DD	imagerel $LN183@operator+173
	DD	imagerel $chain$2$??Y?$basic_string@DU?$char_traits@D@std@@V?$allocator@D@2@@std@@QEAAAEAV01@D@Z
pdata	ENDS
;	COMDAT pdata
pdata	SEGMENT
$pdata$4$??Y?$basic_string@DU?$char_traits@D@std@@V?$allocator@D@2@@std@@QEAAAEAV01@D@Z DD imagerel $LN183@operator+173
	DD	imagerel $LN183@operator+222
	DD	imagerel $chain$4$??Y?$basic_string@DU?$char_traits@D@std@@V?$allocator@D@2@@std@@QEAAAEAV01@D@Z
pdata	ENDS
;	COMDAT pdata
pdata	SEGMENT
$pdata$?append@?$basic_string@DU?$char_traits@D@std@@V?$allocator@D@2@@std@@QEAAAEAV12@_KD@Z DD imagerel $LN180@append
	DD	imagerel $LN180@append+47
	DD	imagerel $unwind$?append@?$basic_string@DU?$char_traits@D@std@@V?$allocator@D@2@@std@@QEAAAEAV12@_KD@Z
pdata	ENDS
;	COMDAT pdata
pdata	SEGMENT
$pdata$0$?append@?$basic_string@DU?$char_traits@D@std@@V?$allocator@D@2@@std@@QEAAAEAV12@_KD@Z DD imagerel $LN180@append+47
	DD	imagerel $LN180@append+152
	DD	imagerel $chain$0$?append@?$basic_string@DU?$char_traits@D@std@@V?$allocator@D@2@@std@@QEAAAEAV12@_KD@Z
pdata	ENDS
;	COMDAT pdata
pdata	SEGMENT
$pdata$2$?append@?$basic_string@DU?$char_traits@D@std@@V?$allocator@D@2@@std@@QEAAAEAV12@_KD@Z DD imagerel $LN180@append+152
	DD	imagerel $LN180@append+174
	DD	imagerel $chain$2$?append@?$basic_string@DU?$char_traits@D@std@@V?$allocator@D@2@@std@@QEAAAEAV12@_KD@Z
pdata	ENDS
;	COMDAT pdata
pdata	SEGMENT
$pdata$4$?append@?$basic_string@DU?$char_traits@D@std@@V?$allocator@D@2@@std@@QEAAAEAV12@_KD@Z DD imagerel $LN180@append+174
	DD	imagerel $LN180@append+223
	DD	imagerel $chain$4$?append@?$basic_string@DU?$char_traits@D@std@@V?$allocator@D@2@@std@@QEAAAEAV12@_KD@Z
pdata	ENDS
;	COMDAT pdata
pdata	SEGMENT
$pdata$?assign@?$basic_string@DU?$char_traits@D@std@@V?$allocator@D@2@@std@@QEAAAEAV12@AEBV12@_K1@Z DD imagerel $LN209@assign
	DD	imagerel $LN209@assign+291
	DD	imagerel $unwind$?assign@?$basic_string@DU?$char_traits@D@std@@V?$allocator@D@2@@std@@QEAAAEAV12@AEBV12@_K1@Z
pdata	ENDS
;	COMDAT pdata
pdata	SEGMENT
$pdata$?assign@?$basic_string@DU?$char_traits@D@std@@V?$allocator@D@2@@std@@QEAAAEAV12@PEBD_K@Z DD imagerel $LN188@assign
	DD	imagerel $LN188@assign+301
	DD	imagerel $unwind$?assign@?$basic_string@DU?$char_traits@D@std@@V?$allocator@D@2@@std@@QEAAAEAV12@PEBD_K@Z
pdata	ENDS
;	COMDAT pdata
pdata	SEGMENT
$pdata$?swap@?$basic_string@DU?$char_traits@D@std@@V?$allocator@D@2@@std@@QEAAXAEAV12@@Z DD imagerel $LN96@swap
	DD	imagerel $LN96@swap+69
	DD	imagerel $unwind$?swap@?$basic_string@DU?$char_traits@D@std@@V?$allocator@D@2@@std@@QEAAXAEAV12@@Z
pdata	ENDS
;	COMDAT pdata
pdata	SEGMENT
$pdata$?_Traits_compare@?$basic_string@DU?$char_traits@D@std@@V?$allocator@D@2@@std@@SAHQEBD_K01@Z DD imagerel $LN11@Traits_com
	DD	imagerel $LN11@Traits_com+84
	DD	imagerel $unwind$?_Traits_compare@?$basic_string@DU?$char_traits@D@std@@V?$allocator@D@2@@std@@SAHQEBD_K01@Z
pdata	ENDS
;	COMDAT pdata
pdata	SEGMENT
$pdata$?_Tidy@?$basic_string@DU?$char_traits@D@std@@V?$allocator@D@2@@std@@QEAAX_N_K@Z DD imagerel $LN116@Tidy
	DD	imagerel $LN116@Tidy+174
	DD	imagerel $unwind$?_Tidy@?$basic_string@DU?$char_traits@D@std@@V?$allocator@D@2@@std@@QEAAX_N_K@Z
pdata	ENDS
;	COMDAT pdata
pdata	SEGMENT
$pdata$??0sentry@?$basic_ostream@DU?$char_traits@D@std@@@std@@QEAA@AEAV12@@Z DD imagerel $LN26@sentry
	DD	imagerel $LN26@sentry+124
	DD	imagerel $unwind$??0sentry@?$basic_ostream@DU?$char_traits@D@std@@@std@@QEAA@AEAV12@@Z
pdata	ENDS
;	COMDAT pdata
pdata	SEGMENT
$pdata$??1sentry@?$basic_ostream@DU?$char_traits@D@std@@@std@@QEAA@XZ DD imagerel $LN13@sentry
	DD	imagerel $LN13@sentry+72
	DD	imagerel $unwind$??1sentry@?$basic_ostream@DU?$char_traits@D@std@@@std@@QEAA@XZ
pdata	ENDS
;	COMDAT pdata
pdata	SEGMENT
$pdata$??1_Sentry_base@?$basic_istream@DU?$char_traits@D@std@@@std@@QEAA@XZ DD imagerel $LN8@Sentry_bas
	DD	imagerel $LN8@Sentry_bas+45
	DD	imagerel $unwind$??1_Sentry_base@?$basic_istream@DU?$char_traits@D@std@@@std@@QEAA@XZ
pdata	ENDS
;	COMDAT pdata
pdata	SEGMENT
$pdata$??0sentry@?$basic_istream@DU?$char_traits@D@std@@@std@@QEAA@AEAV12@_N@Z DD imagerel $LN11@sentry
	DD	imagerel $LN11@sentry+88
	DD	imagerel $unwind$??0sentry@?$basic_istream@DU?$char_traits@D@std@@@std@@QEAA@AEAV12@_N@Z
pdata	ENDS
;	COMDAT pdata
pdata	SEGMENT
$pdata$?_Pop_back_n@?$vector@V?$basic_string@DU?$char_traits@D@std@@V?$allocator@D@2@@std@@V?$allocator@V?$basic_string@DU?$char_traits@D@std@@V?$allocator@D@2@@std@@@2@@std@@QEAAX_K@Z DD imagerel $LN63@Pop_back_n
	DD	imagerel $LN63@Pop_back_n+96
	DD	imagerel $unwind$?_Pop_back_n@?$vector@V?$basic_string@DU?$char_traits@D@std@@V?$allocator@D@2@@std@@V?$allocator@V?$basic_string@DU?$char_traits@D@std@@V?$allocator@D@2@@std@@@2@@std@@QEAAX_K@Z
pdata	ENDS
;	COMDAT pdata
pdata	SEGMENT
$pdata$?_Reserve@?$vector@V?$basic_string@DU?$char_traits@D@std@@V?$allocator@D@2@@std@@V?$allocator@V?$basic_string@DU?$char_traits@D@std@@V?$allocator@D@2@@std@@@2@@std@@IEAAX_K@Z DD imagerel $LN135@Reserve
	DD	imagerel $LN135@Reserve+130
	DD	imagerel $unwind$?_Reserve@?$vector@V?$basic_string@DU?$char_traits@D@std@@V?$allocator@D@2@@std@@V?$allocator@V?$basic_string@DU?$char_traits@D@std@@V?$allocator@D@2@@std@@@2@@std@@IEAAX_K@Z
pdata	ENDS
;	COMDAT pdata
pdata	SEGMENT
$pdata$?_Tidy@?$vector@V?$basic_string@DU?$char_traits@D@std@@V?$allocator@D@2@@std@@V?$allocator@V?$basic_string@DU?$char_traits@D@std@@V?$allocator@D@2@@std@@@2@@std@@IEAAXXZ DD imagerel $LN139@Tidy
	DD	imagerel $LN139@Tidy+25
	DD	imagerel $unwind$?_Tidy@?$vector@V?$basic_string@DU?$char_traits@D@std@@V?$allocator@D@2@@std@@V?$allocator@V?$basic_string@DU?$char_traits@D@std@@V?$allocator@D@2@@std@@@2@@std@@IEAAXXZ
pdata	ENDS
;	COMDAT pdata
pdata	SEGMENT
$pdata$0$?_Tidy@?$vector@V?$basic_string@DU?$char_traits@D@std@@V?$allocator@D@2@@std@@V?$allocator@V?$basic_string@DU?$char_traits@D@std@@V?$allocator@D@2@@std@@@2@@std@@IEAAXXZ DD imagerel $LN139@Tidy+25
	DD	imagerel $LN139@Tidy+90
	DD	imagerel $chain$0$?_Tidy@?$vector@V?$basic_string@DU?$char_traits@D@std@@V?$allocator@D@2@@std@@V?$allocator@V?$basic_string@DU?$char_traits@D@std@@V?$allocator@D@2@@std@@@2@@std@@IEAAXXZ
pdata	ENDS
;	COMDAT pdata
pdata	SEGMENT
$pdata$1$?_Tidy@?$vector@V?$basic_string@DU?$char_traits@D@std@@V?$allocator@D@2@@std@@V?$allocator@V?$basic_string@DU?$char_traits@D@std@@V?$allocator@D@2@@std@@@2@@std@@IEAAXXZ DD imagerel $LN139@Tidy+90
	DD	imagerel $LN139@Tidy+198
	DD	imagerel $chain$1$?_Tidy@?$vector@V?$basic_string@DU?$char_traits@D@std@@V?$allocator@D@2@@std@@V?$allocator@V?$basic_string@DU?$char_traits@D@std@@V?$allocator@D@2@@std@@@2@@std@@IEAAXXZ
pdata	ENDS
;	COMDAT pdata
pdata	SEGMENT
$pdata$?_Tidy@?$vector@PEAVPerson@@V?$allocator@PEAVPerson@@@std@@@std@@IEAAXXZ DD imagerel $LN108@Tidy
	DD	imagerel $LN108@Tidy+150
	DD	imagerel $unwind$?_Tidy@?$vector@PEAVPerson@@V?$allocator@PEAVPerson@@@std@@@std@@IEAAXXZ
pdata	ENDS
;	COMDAT pdata
pdata	SEGMENT
$pdata$?_Tidy@?$vector@PEAVAddress@@V?$allocator@PEAVAddress@@@std@@@std@@IEAAXXZ DD imagerel $LN108@Tidy
	DD	imagerel $LN108@Tidy+150
	DD	imagerel $unwind$?_Tidy@?$vector@PEAVAddress@@V?$allocator@PEAVAddress@@@std@@@std@@IEAAXXZ
pdata	ENDS
;	COMDAT pdata
pdata	SEGMENT
$pdata$?_Tidy@?$vector@HV?$allocator@H@std@@@std@@IEAAXXZ DD imagerel $LN108@Tidy
	DD	imagerel $LN108@Tidy+150
	DD	imagerel $unwind$?_Tidy@?$vector@HV?$allocator@H@std@@@std@@IEAAXXZ
pdata	ENDS
;	COMDAT pdata
pdata	SEGMENT
$pdata$??1sentry@?$basic_istream@DU?$char_traits@D@std@@@std@@QEAA@XZ DD imagerel $LN12@sentry
	DD	imagerel $LN12@sentry+45
	DD	imagerel $unwind$??1sentry@?$basic_istream@DU?$char_traits@D@std@@@std@@QEAA@XZ
pdata	ENDS
;	COMDAT pdata
pdata	SEGMENT
$pdata$??0?$basic_string@DU?$char_traits@D@std@@V?$allocator@D@2@@std@@QEAA@AEBV01@@Z DD imagerel $LN143@basic_stri
	DD	imagerel $LN143@basic_stri+49
	DD	imagerel $unwind$??0?$basic_string@DU?$char_traits@D@std@@V?$allocator@D@2@@std@@QEAA@AEBV01@@Z
pdata	ENDS
;	COMDAT pdata
pdata	SEGMENT
$pdata$??0?$basic_string@DU?$char_traits@D@std@@V?$allocator@D@2@@std@@QEAA@PEBD@Z DD imagerel $LN131@basic_stri
	DD	imagerel $LN131@basic_stri+60
	DD	imagerel $unwind$??0?$basic_string@DU?$char_traits@D@std@@V?$allocator@D@2@@std@@QEAA@PEBD@Z
pdata	ENDS
;	COMDAT pdata
pdata	SEGMENT
$pdata$??0?$basic_string@DU?$char_traits@D@std@@V?$allocator@D@2@@std@@QEAA@$$QEAV01@@Z DD imagerel $LN142@basic_stri
	DD	imagerel $LN142@basic_stri+42
	DD	imagerel $unwind$??0?$basic_string@DU?$char_traits@D@std@@V?$allocator@D@2@@std@@QEAA@$$QEAV01@@Z
pdata	ENDS
;	COMDAT pdata
pdata	SEGMENT
$pdata$??1?$basic_string@DU?$char_traits@D@std@@V?$allocator@D@2@@std@@QEAA@XZ DD imagerel $LN119@basic_stri
	DD	imagerel $LN119@basic_stri+133
	DD	imagerel $unwind$??1?$basic_string@DU?$char_traits@D@std@@V?$allocator@D@2@@std@@QEAA@XZ
pdata	ENDS
;	COMDAT pdata
pdata	SEGMENT
$pdata$?compare@?$basic_string@DU?$char_traits@D@std@@V?$allocator@D@2@@std@@QEBAHAEBV12@@Z DD imagerel $LN59@compare
	DD	imagerel $LN59@compare+106
	DD	imagerel $unwind$?compare@?$basic_string@DU?$char_traits@D@std@@V?$allocator@D@2@@std@@QEBAHAEBV12@@Z
pdata	ENDS
;	COMDAT pdata
pdata	SEGMENT
$pdata$?insert@?$vector@V?$basic_string@DU?$char_traits@D@std@@V?$allocator@D@2@@std@@V?$allocator@V?$basic_string@DU?$char_traits@D@std@@V?$allocator@D@2@@std@@@2@@std@@QEAA?AV?$_Vector_iterator@V?$_Vector_val@U?$_Simple_types@V?$basic_string@DU?$char_traits@D@std@@V?$allocator@D@2@@std@@@std@@@std@@@2@V?$_Vector_const_iterator@V?$_Vector_val@U?$_Simple_types@V?$basic_string@DU?$char_traits@D@std@@V?$allocator@D@2@@std@@@std@@@std@@@2@$$QEAV?$basic_string@DU?$char_traits@D@std@@V?$allocator@D@2@@2@@Z DD imagerel $LN537@insert
	DD	imagerel $LN537@insert+247
	DD	imagerel $unwind$?insert@?$vector@V?$basic_string@DU?$char_traits@D@std@@V?$allocator@D@2@@std@@V?$allocator@V?$basic_string@DU?$char_traits@D@std@@V?$allocator@D@2@@std@@@2@@std@@QEAA?AV?$_Vector_iterator@V?$_Vector_val@U?$_Simple_types@V?$basic_string@DU?$char_traits@D@std@@V?$allocator@D@2@@std@@@std@@@std@@@2@V?$_Vector_const_iterator@V?$_Vector_val@U?$_Simple_types@V?$basic_string@DU?$char_traits@D@std@@V?$allocator@D@2@@std@@@std@@@std@@@2@$$QEAV?$basic_string@DU?$char_traits@D@std@@V?$allocator@D@2@@2@@Z
pdata	ENDS
;	COMDAT pdata
pdata	SEGMENT
$pdata$??0?$vector@V?$basic_string@DU?$char_traits@D@std@@V?$allocator@D@2@@std@@V?$allocator@V?$basic_string@DU?$char_traits@D@std@@V?$allocator@D@2@@std@@@2@@std@@QEAA@V?$initializer_list@V?$basic_string@DU?$char_traits@D@std@@V?$allocator@D@2@@std@@@1@AEBV?$allocator@V?$basic_string@DU?$char_traits@D@std@@V?$allocator@D@2@@std@@@1@@Z DD imagerel $LN24@vector
	DD	imagerel $LN24@vector+43
	DD	imagerel $unwind$??0?$vector@V?$basic_string@DU?$char_traits@D@std@@V?$allocator@D@2@@std@@V?$allocator@V?$basic_string@DU?$char_traits@D@std@@V?$allocator@D@2@@std@@@2@@std@@QEAA@V?$initializer_list@V?$basic_string@DU?$char_traits@D@std@@V?$allocator@D@2@@std@@@1@AEBV?$allocator@V?$basic_string@DU?$char_traits@D@std@@V?$allocator@D@2@@std@@@1@@Z
pdata	ENDS
;	COMDAT pdata
pdata	SEGMENT
$pdata$?resize@?$vector@V?$basic_string@DU?$char_traits@D@std@@V?$allocator@D@2@@std@@V?$allocator@V?$basic_string@DU?$char_traits@D@std@@V?$allocator@D@2@@std@@@2@@std@@QEAAX_K@Z DD imagerel $LN359@resize
	DD	imagerel $LN359@resize+46
	DD	imagerel $unwind$?resize@?$vector@V?$basic_string@DU?$char_traits@D@std@@V?$allocator@D@2@@std@@V?$allocator@V?$basic_string@DU?$char_traits@D@std@@V?$allocator@D@2@@std@@@2@@std@@QEAAX_K@Z
pdata	ENDS
;	COMDAT pdata
pdata	SEGMENT
$pdata$0$?resize@?$vector@V?$basic_string@DU?$char_traits@D@std@@V?$allocator@D@2@@std@@V?$allocator@V?$basic_string@DU?$char_traits@D@std@@V?$allocator@D@2@@std@@@2@@std@@QEAAX_K@Z DD imagerel $LN359@resize+46
	DD	imagerel $LN359@resize+111
	DD	imagerel $chain$0$?resize@?$vector@V?$basic_string@DU?$char_traits@D@std@@V?$allocator@D@2@@std@@V?$allocator@V?$basic_string@DU?$char_traits@D@std@@V?$allocator@D@2@@std@@@2@@std@@QEAAX_K@Z
pdata	ENDS
;	COMDAT pdata
pdata	SEGMENT
$pdata$1$?resize@?$vector@V?$basic_string@DU?$char_traits@D@std@@V?$allocator@D@2@@std@@V?$allocator@V?$basic_string@DU?$char_traits@D@std@@V?$allocator@D@2@@std@@@2@@std@@QEAAX_K@Z DD imagerel $LN359@resize+111
	DD	imagerel $LN359@resize+290
	DD	imagerel $chain$1$?resize@?$vector@V?$basic_string@DU?$char_traits@D@std@@V?$allocator@D@2@@std@@V?$allocator@V?$basic_string@DU?$char_traits@D@std@@V?$allocator@D@2@@std@@@2@@std@@QEAAX_K@Z
pdata	ENDS
;	COMDAT pdata
pdata	SEGMENT
$pdata$??0?$vector@PEAVPerson@@V?$allocator@PEAVPerson@@@std@@@std@@QEAA@V?$initializer_list@PEAVPerson@@@1@AEBV?$allocator@PEAVPerson@@@1@@Z DD imagerel $LN24@vector
	DD	imagerel $LN24@vector+43
	DD	imagerel $unwind$??0?$vector@PEAVPerson@@V?$allocator@PEAVPerson@@@std@@@std@@QEAA@V?$initializer_list@PEAVPerson@@@1@AEBV?$allocator@PEAVPerson@@@1@@Z
pdata	ENDS
;	COMDAT pdata
pdata	SEGMENT
$pdata$??1?$vector@PEAVPerson@@V?$allocator@PEAVPerson@@@std@@@std@@QEAA@XZ DD imagerel $LN111@vector
	DD	imagerel $LN111@vector+150
	DD	imagerel $unwind$??1?$vector@PEAVPerson@@V?$allocator@PEAVPerson@@@std@@@std@@QEAA@XZ
pdata	ENDS
;	COMDAT pdata
pdata	SEGMENT
$pdata$?insert@?$vector@PEAVAddress@@V?$allocator@PEAVAddress@@@std@@@std@@QEAA?AV?$_Vector_iterator@V?$_Vector_val@U?$_Simple_types@PEAVAddress@@@std@@@std@@@2@V?$_Vector_const_iterator@V?$_Vector_val@U?$_Simple_types@PEAVAddress@@@std@@@std@@@2@$$QEAPEAVAddress@@@Z DD imagerel $LN393@insert
	DD	imagerel $LN393@insert+230
	DD	imagerel $unwind$?insert@?$vector@PEAVAddress@@V?$allocator@PEAVAddress@@@std@@@std@@QEAA?AV?$_Vector_iterator@V?$_Vector_val@U?$_Simple_types@PEAVAddress@@@std@@@std@@@2@V?$_Vector_const_iterator@V?$_Vector_val@U?$_Simple_types@PEAVAddress@@@std@@@std@@@2@$$QEAPEAVAddress@@@Z
pdata	ENDS
;	COMDAT pdata
pdata	SEGMENT
$pdata$??0?$vector@PEAVAddress@@V?$allocator@PEAVAddress@@@std@@@std@@QEAA@V?$initializer_list@PEAVAddress@@@1@AEBV?$allocator@PEAVAddress@@@1@@Z DD imagerel $LN24@vector
	DD	imagerel $LN24@vector+43
	DD	imagerel $unwind$??0?$vector@PEAVAddress@@V?$allocator@PEAVAddress@@@std@@@std@@QEAA@V?$initializer_list@PEAVAddress@@@1@AEBV?$allocator@PEAVAddress@@@1@@Z
pdata	ENDS
;	COMDAT pdata
pdata	SEGMENT
$pdata$??1?$vector@PEAVAddress@@V?$allocator@PEAVAddress@@@std@@@std@@QEAA@XZ DD imagerel $LN111@vector
	DD	imagerel $LN111@vector+150
	DD	imagerel $unwind$??1?$vector@PEAVAddress@@V?$allocator@PEAVAddress@@@std@@@std@@QEAA@XZ
pdata	ENDS
;	COMDAT pdata
pdata	SEGMENT
$pdata$??0?$vector@HV?$allocator@H@std@@@std@@QEAA@V?$initializer_list@H@1@AEBV?$allocator@H@1@@Z DD imagerel $LN24@vector
	DD	imagerel $LN24@vector+43
	DD	imagerel $unwind$??0?$vector@HV?$allocator@H@std@@@std@@QEAA@V?$initializer_list@H@1@AEBV?$allocator@H@1@@Z
pdata	ENDS
;	COMDAT pdata
pdata	SEGMENT
$pdata$??1?$vector@HV?$allocator@H@std@@@std@@QEAA@XZ DD imagerel $LN111@vector
	DD	imagerel $LN111@vector+150
	DD	imagerel $unwind$??1?$vector@HV?$allocator@H@std@@@std@@QEAA@XZ
pdata	ENDS
;	COMDAT pdata
pdata	SEGMENT
$pdata$?__autoclassinit2@Person@@QEAAX_K@Z DD imagerel $LN4@autoclassi
	DD	imagerel $LN4@autoclassi+20
	DD	imagerel $unwind$?__autoclassinit2@Person@@QEAAX_K@Z
pdata	ENDS
;	COMDAT pdata
pdata	SEGMENT
$pdata$??1Person@@QEAA@XZ DD imagerel $LN4@Person
	DD	imagerel $LN4@Person+32
	DD	imagerel $unwind$??1Person@@QEAA@XZ
pdata	ENDS
;	COMDAT pdata
pdata	SEGMENT
$pdata$main DD	imagerel $LN5057
	DD	imagerel $LN5057+3991
	DD	imagerel $unwind$main
pdata	ENDS
;	COMDAT pdata
pdata	SEGMENT
$pdata$main$dtor$18 DD imagerel main$dtor$18
	DD	imagerel main$dtor$18+42
	DD	imagerel $unwind$main$dtor$18
pdata	ENDS
;	COMDAT pdata
pdata	SEGMENT
$pdata$?SearchName@@YAXAEBV?$vector@V?$basic_string@DU?$char_traits@D@std@@V?$allocator@D@2@@std@@V?$allocator@V?$basic_string@DU?$char_traits@D@std@@V?$allocator@D@2@@std@@@2@@std@@@Z DD imagerel $LN384@SearchName
	DD	imagerel $LN384@SearchName+456
	DD	imagerel $unwind$?SearchName@@YAXAEBV?$vector@V?$basic_string@DU?$char_traits@D@std@@V?$allocator@D@2@@std@@V?$allocator@V?$basic_string@DU?$char_traits@D@std@@V?$allocator@D@2@@std@@@2@@std@@@Z
pdata	ENDS
;	COMDAT pdata
pdata	SEGMENT
$pdata$?printElements@@YAXAEAY04H@Z DD imagerel $LN11@printEleme
	DD	imagerel $LN11@printEleme+68
	DD	imagerel $unwind$?printElements@@YAXAEAY04H@Z
pdata	ENDS
;	COMDAT pdata
pdata	SEGMENT
$pdata$?func1@@YAXAEAVA@@@Z DD imagerel $LN123@func1
	DD	imagerel $LN123@func1+198
	DD	imagerel $unwind$?func1@@YAXAEAVA@@@Z
pdata	ENDS
;	COMDAT pdata
pdata	SEGMENT
$pdata$?GetName@B@@UEBA?AV?$basic_string@DU?$char_traits@D@std@@V?$allocator@D@2@@std@@XZ DD imagerel $LN6@GetName
	DD	imagerel $LN6@GetName+37
	DD	imagerel $unwind$?GetName@B@@UEBA?AV?$basic_string@DU?$char_traits@D@std@@V?$allocator@D@2@@std@@XZ
pdata	ENDS
;	COMDAT pdata
pdata	SEGMENT
$pdata$??0B@@QEAA@AEBV0@@Z DD imagerel $LN6@B
	DD	imagerel $LN6@B+69
	DD	imagerel $unwind$??0B@@QEAA@AEBV0@@Z
pdata	ENDS
;	COMDAT pdata
pdata	SEGMENT
$pdata$?GetName@A@@UEBA?AV?$basic_string@DU?$char_traits@D@std@@V?$allocator@D@2@@std@@XZ DD imagerel $LN6@GetName
	DD	imagerel $LN6@GetName+37
	DD	imagerel $unwind$?GetName@A@@UEBA?AV?$basic_string@DU?$char_traits@D@std@@V?$allocator@D@2@@std@@XZ
pdata	ENDS
;	COMDAT pdata
pdata	SEGMENT
$pdata$??6@YAAEAV?$basic_ostream@DU?$char_traits@D@std@@@std@@AEAV01@AEBVPerson@@@Z DD imagerel $LN4@operator
	DD	imagerel $LN4@operator+187
	DD	imagerel $unwind$??6@YAAEAV?$basic_ostream@DU?$char_traits@D@std@@@std@@AEAV01@AEBVPerson@@@Z
pdata	ENDS
;	COMDAT pdata
pdata	SEGMENT
$pdata$??0Person@@QEAA@_KAEBV?$basic_string@DU?$char_traits@D@std@@V?$allocator@D@2@@std@@1@Z DD imagerel $LN288@Person
	DD	imagerel $LN288@Person+158
	DD	imagerel $unwind$??0Person@@QEAA@_KAEBV?$basic_string@DU?$char_traits@D@std@@V?$allocator@D@2@@std@@1@Z
pdata	ENDS
;	COMDAT pdata
pdata	SEGMENT
$pdata$??0Address@@QEAA@_KAEBV?$basic_string@DU?$char_traits@D@std@@V?$allocator@D@2@@std@@@Z DD imagerel $LN147@Address
	DD	imagerel $LN147@Address+62
	DD	imagerel $unwind$??0Address@@QEAA@_KAEBV?$basic_string@DU?$char_traits@D@std@@V?$allocator@D@2@@std@@@Z
pdata	ENDS
;	COMDAT pdata
pdata	SEGMENT
$pdata$?to_string@std@@YA?AV?$basic_string@DU?$char_traits@D@std@@V?$allocator@D@2@@1@H@Z DD imagerel $LN6@to_string
	DD	imagerel $LN6@to_string+31
	DD	imagerel $unwind$?to_string@std@@YA?AV?$basic_string@DU?$char_traits@D@std@@V?$allocator@D@2@@1@H@Z
pdata	ENDS
;	COMDAT pdata
pdata	SEGMENT
$pdata$?_Getfacet@locale@std@@QEBAPEBVfacet@12@_K@Z DD imagerel $LN12@Getfacet
	DD	imagerel $LN12@Getfacet+83
	DD	imagerel $unwind$?_Getfacet@locale@std@@QEBAPEBVfacet@12@_K@Z
pdata	ENDS
;	COMDAT pdata
pdata	SEGMENT
$pdata$??1locale@std@@QEAA@XZ DD imagerel $LN6@locale
	DD	imagerel $LN6@locale+54
	DD	imagerel $unwind$??1locale@std@@QEAA@XZ
pdata	ENDS
;	COMDAT pdata
pdata	SEGMENT
$pdata$??_Gbad_cast@std@@UEAAPEAXI@Z DD imagerel $LN11@scalar
	DD	imagerel $LN11@scalar+67
	DD	imagerel $unwind$??_Gbad_cast@std@@UEAAPEAXI@Z
pdata	ENDS
;	COMDAT pdata
pdata	SEGMENT
$pdata$?_Deallocate@std@@YAXPEAX_K1@Z DD imagerel $LN11@Deallocate
	DD	imagerel $LN11@Deallocate+110
	DD	imagerel $unwind$?_Deallocate@std@@YAXPEAX_K1@Z
pdata	ENDS
;	COMDAT pdata
pdata	SEGMENT
$pdata$?_Allocate@std@@YAPEAX_K0_N@Z DD imagerel $LN12@Allocate
	DD	imagerel $LN12@Allocate+110
	DD	imagerel $unwind$?_Allocate@std@@YAPEAX_K0_N@Z
pdata	ENDS
;	COMDAT pdata
pdata	SEGMENT
$pdata$?copy@?$char_traits@D@std@@SAPEADPEADPEBD_K@Z DD imagerel $LN7@copy
	DD	imagerel $LN7@copy+28
	DD	imagerel $unwind$?copy@?$char_traits@D@std@@SAPEADPEADPEBD_K@Z
pdata	ENDS
;	COMDAT pdata
pdata	SEGMENT
$pdata$??_Gexception@std@@UEAAPEAXI@Z DD imagerel $LN8@scalar
	DD	imagerel $LN8@scalar+67
	DD	imagerel $unwind$??_Gexception@std@@UEAAPEAXI@Z
pdata	ENDS
;	COMDAT pdata
pdata	SEGMENT
$pdata$??0exception@std@@QEAA@AEBV01@@Z DD imagerel $LN4@exception
	DD	imagerel $LN4@exception+54
	DD	imagerel $unwind$??0exception@std@@QEAA@AEBV01@@Z
pdata	ENDS
;	COMDAT __xmm@000000500000000e0000001400000063
CONST	SEGMENT
__xmm@000000500000000e0000001400000063 DB 'c', 00H, 00H, 00H, 014H, 00H, 00H
	DB	00H, 0eH, 00H, 00H, 00H, 'P', 00H, 00H, 00H
CONST	ENDS
;	COMDAT __xmm@0000000a0000006e0000004b00000032
CONST	SEGMENT
__xmm@0000000a0000006e0000004b00000032 DB '2', 00H, 00H, 00H, 'K', 00H, 00H
	DB	00H, 'n', 00H, 00H, 00H, 0aH, 00H, 00H, 00H
CONST	ENDS
;	COMDAT __xmm@00000006000000030000000600000005
CONST	SEGMENT
__xmm@00000006000000030000000600000005 DB 05H, 00H, 00H, 00H, 06H, 00H, 00H
	DB	00H, 03H, 00H, 00H, 00H, 06H, 00H, 00H, 00H
CONST	ENDS
;	COMDAT __xmm@00000004000000030000000200000001
CONST	SEGMENT
__xmm@00000004000000030000000200000001 DB 01H, 00H, 00H, 00H, 02H, 00H, 00H
	DB	00H, 03H, 00H, 00H, 00H, 04H, 00H, 00H, 00H
CONST	ENDS
;	COMDAT xdata
xdata	SEGMENT
$unwind$??0exception@std@@QEAA@AEBV01@@Z DD 020601H
	DD	030023206H
xdata	ENDS
;	COMDAT xdata
xdata	SEGMENT
$unwind$??_Gexception@std@@UEAAPEAXI@Z DD 040a01H
	DD	06340aH
	DD	07006320aH
xdata	ENDS
;	COMDAT xdata
xdata	SEGMENT
$unwind$?copy@?$char_traits@D@std@@SAPEADPEADPEBD_K@Z DD 020601H
	DD	030023206H
xdata	ENDS
;	COMDAT xdata
xdata	SEGMENT
$unwind$?_Allocate@std@@YAPEAX_K0_N@Z DD 010401H
	DD	04204H
xdata	ENDS
;	COMDAT xdata
xdata	SEGMENT
$unwind$?_Deallocate@std@@YAXPEAX_K1@Z DD 010401H
	DD	04204H
xdata	ENDS
;	COMDAT xdata
xdata	SEGMENT
$unwind$??_Gbad_cast@std@@UEAAPEAXI@Z DD 040a01H
	DD	06340aH
	DD	07006320aH
xdata	ENDS
;	COMDAT xdata
xdata	SEGMENT
$ip2state$??1locale@std@@QEAA@XZ DD imagerel ??1locale@std@@QEAA@XZ
	DD	0ffffffffH
xdata	ENDS
;	COMDAT CONST
CONST	SEGMENT
$cppxdata$??1locale@std@@QEAA@XZ DQ 00000000019930522r ; 2.11987e-315
	DQ	00000000000000000r		; 0
	DQ	00000000100000000r		; 2.122e-314
	DD	imagerel $ip2state$??1locale@std@@QEAA@XZ
	DQ	00000000000000020r		; 1.58101e-322
	DD	05H
CONST	ENDS
;	COMDAT xdata
xdata	SEGMENT
$unwind$??1locale@std@@QEAA@XZ DD 010d19H
	DD	06204H
	DD	imagerel __CxxFrameHandler3
	DD	imagerel $cppxdata$??1locale@std@@QEAA@XZ
xdata	ENDS
;	COMDAT xdata
xdata	SEGMENT
$unwind$?_Getfacet@locale@std@@QEBAPEBVfacet@12@_K@Z DD 040a01H
	DD	06340aH
	DD	07006320aH
xdata	ENDS
;	COMDAT xdata
xdata	SEGMENT
$unwind$?to_string@std@@YA?AV?$basic_string@DU?$char_traits@D@std@@V?$allocator@D@2@@1@H@Z DD 020601H
	DD	030025206H
xdata	ENDS
;	COMDAT xdata
xdata	SEGMENT
$unwind$??0Address@@QEAA@_KAEBV?$basic_string@DU?$char_traits@D@std@@V?$allocator@D@2@@std@@@Z DD 020601H
	DD	030023206H
xdata	ENDS
;	COMDAT xdata
xdata	SEGMENT
$ip2state$??0Person@@QEAA@_KAEBV?$basic_string@DU?$char_traits@D@std@@V?$allocator@D@2@@std@@1@Z DD imagerel ??0Person@@QEAA@_KAEBV?$basic_string@DU?$char_traits@D@std@@V?$allocator@D@2@@std@@1@Z
	DD	0ffffffffH
	DD	imagerel ??0Person@@QEAA@_KAEBV?$basic_string@DU?$char_traits@D@std@@V?$allocator@D@2@@std@@1@Z+90
	DD	00H
	DD	imagerel ??0Person@@QEAA@_KAEBV?$basic_string@DU?$char_traits@D@std@@V?$allocator@D@2@@std@@1@Z+144
	DD	0ffffffffH
xdata	ENDS
;	COMDAT xdata
xdata	SEGMENT
$stateUnwindMap$??0Person@@QEAA@_KAEBV?$basic_string@DU?$char_traits@D@std@@V?$allocator@D@2@@std@@1@Z DD 0ffffffffH
	DD	imagerel ?dtor$0@?0???0Person@@QEAA@_KAEBV?$basic_string@DU?$char_traits@D@std@@V?$allocator@D@2@@std@@1@Z@4HA
xdata	ENDS
;	COMDAT CONST
CONST	SEGMENT
$cppxdata$??0Person@@QEAA@_KAEBV?$basic_string@DU?$char_traits@D@std@@V?$allocator@D@2@@std@@1@Z DQ 00000000119930522r ; 2.33398e-314
	DD	imagerel $stateUnwindMap$??0Person@@QEAA@_KAEBV?$basic_string@DU?$char_traits@D@std@@V?$allocator@D@2@@std@@1@Z
	DQ	00000000000000000r		; 0
	DD	03H
	DD	imagerel $ip2state$??0Person@@QEAA@_KAEBV?$basic_string@DU?$char_traits@D@std@@V?$allocator@D@2@@std@@1@Z
	DQ	00000000000000020r		; 1.58101e-322
	DD	01H
CONST	ENDS
;	COMDAT xdata
xdata	SEGMENT
$unwind$??0Person@@QEAA@_KAEBV?$basic_string@DU?$char_traits@D@std@@V?$allocator@D@2@@std@@1@Z DD 041811H
	DD	093418H
	DD	07006520aH
	DD	imagerel __CxxFrameHandler3
	DD	imagerel $cppxdata$??0Person@@QEAA@_KAEBV?$basic_string@DU?$char_traits@D@std@@V?$allocator@D@2@@std@@1@Z
xdata	ENDS
;	COMDAT xdata
xdata	SEGMENT
$unwind$??6@YAAEAV?$basic_ostream@DU?$char_traits@D@std@@@std@@AEAV01@AEBVPerson@@@Z DD 0a1a01H
	DD	09741aH
	DD	08641aH
	DD	07541aH
	DD	06341aH
	DD	0e016321aH
xdata	ENDS
;	COMDAT xdata
xdata	SEGMENT
$unwind$?GetName@A@@UEBA?AV?$basic_string@DU?$char_traits@D@std@@V?$allocator@D@2@@std@@XZ DD 020601H
	DD	030025206H
xdata	ENDS
;	COMDAT xdata
xdata	SEGMENT
$unwind$??0B@@QEAA@AEBV0@@Z DD 020601H
	DD	030023206H
xdata	ENDS
;	COMDAT xdata
xdata	SEGMENT
$unwind$?GetName@B@@UEBA?AV?$basic_string@DU?$char_traits@D@std@@V?$allocator@D@2@@std@@XZ DD 020601H
	DD	030025206H
xdata	ENDS
;	COMDAT xdata
xdata	SEGMENT
$ip2state$?func1@@YAXAEAVA@@@Z DD imagerel ?func1@@YAXAEAVA@@@Z
	DD	0ffffffffH
	DD	imagerel ?func1@@YAXAEAVA@@@Z+39
	DD	00H
	DD	imagerel ?func1@@YAXAEAVA@@@Z+88
	DD	0ffffffffH
xdata	ENDS
;	COMDAT xdata
xdata	SEGMENT
$stateUnwindMap$?func1@@YAXAEAVA@@@Z DD 0ffffffffH
	DD	imagerel ?dtor$0@?0??func1@@YAXAEAVA@@@Z@4HA
xdata	ENDS
;	COMDAT CONST
CONST	SEGMENT
$cppxdata$?func1@@YAXAEAVA@@@Z DQ 00000000119930522r ; 2.33398e-314
	DD	imagerel $stateUnwindMap$?func1@@YAXAEAVA@@@Z
	DQ	00000000000000000r		; 0
	DD	03H
	DD	imagerel $ip2state$?func1@@YAXAEAVA@@@Z
	DQ	00000000000000020r		; 1.58101e-322
	DD	01H
CONST	ENDS
;	COMDAT xdata
xdata	SEGMENT
$unwind$?func1@@YAXAEAVA@@@Z DD 011c19H
	DD	0a204H
	DD	imagerel __GSHandlerCheck_EH
	DD	imagerel $cppxdata$?func1@@YAXAEAVA@@@Z
	DD	04aH
xdata	ENDS
;	COMDAT xdata
xdata	SEGMENT
$unwind$?printElements@@YAXAEAY04H@Z DD 040a01H
	DD	06340aH
	DD	07006320aH
xdata	ENDS
;	COMDAT xdata
xdata	SEGMENT
$ip2state$?SearchName@@YAXAEBV?$vector@V?$basic_string@DU?$char_traits@D@std@@V?$allocator@D@2@@std@@V?$allocator@V?$basic_string@DU?$char_traits@D@std@@V?$allocator@D@2@@std@@@2@@std@@@Z DD imagerel ?SearchName@@YAXAEBV?$vector@V?$basic_string@DU?$char_traits@D@std@@V?$allocator@D@2@@std@@V?$allocator@V?$basic_string@DU?$char_traits@D@std@@V?$allocator@D@2@@std@@@2@@std@@@Z
	DD	0ffffffffH
	DD	imagerel ?SearchName@@YAXAEBV?$vector@V?$basic_string@DU?$char_traits@D@std@@V?$allocator@D@2@@std@@V?$allocator@V?$basic_string@DU?$char_traits@D@std@@V?$allocator@D@2@@std@@@2@@std@@@Z+92
	DD	00H
	DD	imagerel ?SearchName@@YAXAEBV?$vector@V?$basic_string@DU?$char_traits@D@std@@V?$allocator@D@2@@std@@V?$allocator@V?$basic_string@DU?$char_traits@D@std@@V?$allocator@D@2@@std@@@2@@std@@@Z+323
	DD	0ffffffffH
xdata	ENDS
;	COMDAT xdata
xdata	SEGMENT
$stateUnwindMap$?SearchName@@YAXAEBV?$vector@V?$basic_string@DU?$char_traits@D@std@@V?$allocator@D@2@@std@@V?$allocator@V?$basic_string@DU?$char_traits@D@std@@V?$allocator@D@2@@std@@@2@@std@@@Z DD 0ffffffffH
	DD	imagerel ?dtor$0@?0??SearchName@@YAXAEBV?$vector@V?$basic_string@DU?$char_traits@D@std@@V?$allocator@D@2@@std@@V?$allocator@V?$basic_string@DU?$char_traits@D@std@@V?$allocator@D@2@@std@@@2@@std@@@Z@4HA
xdata	ENDS
